   1              		.file	"parser.c"
   2              		.comm	_plc, 52, 5
   3              		.comm	_Use_comedi, 4, 2
   4              		.comm	_Step, 4, 2
   5              		.comm	_Sigenable, 4, 2
   6              		.comm	_Pagelen, 4, 2
   7              		.comm	_Pagewidth, 4, 2
   8              		.comm	_Nt, 4, 2
   9              		.comm	_Ns, 4, 2
  10              		.comm	_Nm, 4, 2
  11              		.comm	_Di, 4, 2
  12              		.comm	_Dq, 4, 2
  13              		.comm	_Base, 4, 2
  14              		.comm	_Wr_offs, 4, 2
  15              		.comm	_Rd_offs, 4, 2
  16              		.comm	_Comedi_file, 4, 2
  17              		.comm	_Comedi_subdev_i, 4, 2
  18              		.comm	_Comedi_subdev_q, 4, 2
  19              		.comm	_Lines, 67108864, 5
  20              		.comm	_Lineno, 4, 2
  21              		.comm	_Pos, 262144, 5
  22              		.comm	_Val, 65536, 5
  23              		.comm	_Labels, 67108864, 5
  24              		.comm	_Command, 1, 0
  25              		.comm	_Response, 1, 0
  26              		.comm	_Stack, 4, 2
  27              		.globl	_errmsg
  28              		.section .rdata,"dr"
  29              		.align 32
  30              	_errmsg:
  31 0000 536F6D65 		.ascii "Something went terribly wrong!\0"
  31      7468696E 
  31      67207765 
  31      6E742074 
  31      65727269 
  32 001f 00000000 		.space 225
  32      00000000 
  32      00000000 
  32      00000000 
  32      00000000 
  33 0100 496E7661 		.ascii "Invalid Symbol!\0"
  33      6C696420 
  33      53796D62 
  33      6F6C2100 
  34 0110 00000000 		.space 240
  34      00000000 
  34      00000000 
  34      00000000 
  34      00000000 
  35 0200 57726F6E 		.ascii "Wrong File!\0"
  35      67204669 
  35      6C652100 
  36 020c 00000000 		.space 244
  36      00000000 
  36      00000000 
  36      00000000 
  36      00000000 
  37 0300 496E7661 		.ascii "Invalid Operand!\0"
  37      6C696420 
  37      4F706572 
  37      616E6421 
  37      00
  38 0311 00000000 		.space 239
  38      00000000 
  38      00000000 
  38      00000000 
  38      00000000 
  39 0400 496E7661 		.ascii "Invalid Numeric!\0"
  39      6C696420 
  39      4E756D65 
  39      72696321 
  39      00
  40 0411 00000000 		.space 239
  40      00000000 
  40      00000000 
  40      00000000 
  40      00000000 
  41 0500 496E7661 		.ascii "Invalid Output!\0"
  41      6C696420 
  41      4F757470 
  41      75742100 
  42 0510 00000000 		.space 240
  42      00000000 
  42      00000000 
  42      00000000 
  42      00000000 
  43 0600 496E7661 		.ascii "Invalid Command!\0"
  43      6C696420 
  43      436F6D6D 
  43      616E6421 
  43      00
  44 0611 00000000 		.space 239
  44      00000000 
  44      00000000 
  44      00000000 
  44      00000000 
  45 0700 00       		.ascii "\0"
  46 0701 00000000 		.space 255
  46      00000000 
  46      00000000 
  46      00000000 
  46      00000000 
  47              		.globl	_il_commands
  48              		.align 32
  49              	_il_commands:
  50 0800 00       		.ascii "\0"
  51 0801 000000   		.space 3
  52 0804 2900     		.ascii ")\0"
  53 0806 0000     		.space 2
  54 0808 52455400 		.ascii "RET\0"
  55 080c 4A4D5000 		.ascii "JMP\0"
  56 0810 43414C00 		.ascii "CAL\0"
  57 0814 5300     		.ascii "S\0"
  58 0816 0000     		.space 2
  59 0818 5200     		.ascii "R\0"
  60 081a 0000     		.space 2
  61 081c 414E4400 		.ascii "AND\0"
  62 0820 4F5200   		.ascii "OR\0"
  63 0823 00       		.space 1
  64 0824 584F5200 		.ascii "XOR\0"
  65 0828 4C4400   		.ascii "LD\0"
  66 082b 00       		.space 1
  67 082c 535400   		.ascii "ST\0"
  68 082f 00       		.space 1
  69 0830 41444400 		.ascii "ADD\0"
  70 0834 53554200 		.ascii "SUB\0"
  71 0838 4D554C00 		.ascii "MUL\0"
  72 083c 44495600 		.ascii "DIV\0"
  73 0840 475400   		.ascii "GT\0"
  74 0843 00       		.space 1
  75 0844 474500   		.ascii "GE\0"
  76 0847 00       		.space 1
  77 0848 455100   		.ascii "EQ\0"
  78 084b 00       		.space 1
  79 084c 4E4500   		.ascii "NE\0"
  80 084f 00       		.space 1
  81 0850 4C5400   		.ascii "LT\0"
  82 0853 00       		.space 1
  83 0854 4C4500   		.ascii "LE\0"
  84 0857 00       		.space 1
  85              		.text
  86              		.globl	_extract_number
  88              	_extract_number:
  89 0000 55       		pushl	%ebp
  90 0001 89E5     		movl	%esp, %ebp
  91 0003 53       		pushl	%ebx
  92 0004 83EC24   		subl	$36, %esp
  93 0007 8B5D0C   		movl	12(%ebp), %ebx
  94 000a 8B4508   		movl	8(%ebp), %eax
  95 000d 890424   		movl	%eax, (%esp)
  96 0010 E8000000 		call	_strlen
  96      00
  97 0015 39C3     		cmpl	%eax, %ebx
  98 0017 7207     		jb	L2
  99 0019 B8FFFFFF 		movl	$-1, %eax
  99      FF
 100 001e EB5D     		jmp	L3
 101              	L2:
 102 0020 C745F000 		movl	$0, -16(%ebp)
 102      000000
 103 0027 8B450C   		movl	12(%ebp), %eax
 104 002a 8945F4   		movl	%eax, -12(%ebp)
 105 002d EB26     		jmp	L4
 106              	L5:
 107 002f 8B55F0   		movl	-16(%ebp), %edx
 108 0032 89D0     		movl	%edx, %eax
 109 0034 C1E002   		sall	$2, %eax
 110 0037 01D0     		addl	%edx, %eax
 111 0039 01C0     		addl	%eax, %eax
 112 003b 8B4DF4   		movl	-12(%ebp), %ecx
 113 003e 8B5508   		movl	8(%ebp), %edx
 114 0041 01CA     		addl	%ecx, %edx
 115 0043 0FB612   		movzbl	(%edx), %edx
 116 0046 0FBED2   		movsbl	%dl, %edx
 117 0049 83EA30   		subl	$48, %edx
 118 004c 01D0     		addl	%edx, %eax
 119 004e 8945F0   		movl	%eax, -16(%ebp)
 120 0051 8345F401 		addl	$1, -12(%ebp)
 121              	L4:
 122 0055 8B55F4   		movl	-12(%ebp), %edx
 123 0058 8B4508   		movl	8(%ebp), %eax
 124 005b 01D0     		addl	%edx, %eax
 125 005d 0FB600   		movzbl	(%eax), %eax
 126 0060 0FBEC0   		movsbl	%al, %eax
 127 0063 83E830   		subl	$48, %eax
 128 0066 83F809   		cmpl	$9, %eax
 129 0069 76C4     		jbe	L5
 130 006b 8B45F4   		movl	-12(%ebp), %eax
 131 006e 3B450C   		cmpl	12(%ebp), %eax
 132 0071 7507     		jne	L6
 133 0073 B8FFFFFF 		movl	$-1, %eax
 133      FF
 134 0078 EB03     		jmp	L3
 135              	L6:
 136 007a 8B45F0   		movl	-16(%ebp), %eax
 137              	L3:
 138 007d 83C424   		addl	$36, %esp
 139 0080 5B       		popl	%ebx
 140 0081 5D       		popl	%ebp
 141 0082 C3       		ret
 142              		.globl	_read_char
 144              	_read_char:
 145 0083 55       		pushl	%ebp
 146 0084 89E5     		movl	%esp, %ebp
 147 0086 53       		pushl	%ebx
 148 0087 83EC24   		subl	$36, %esp
 149 008a C745F400 		movl	$0, -12(%ebp)
 149      000000
 150 0091 8B5D0C   		movl	12(%ebp), %ebx
 151 0094 8B4508   		movl	8(%ebp), %eax
 152 0097 890424   		movl	%eax, (%esp)
 153 009a E8000000 		call	_strlen
 153      00
 154 009f 39C3     		cmpl	%eax, %ebx
 155 00a1 760A     		jbe	L8
 156 00a3 B8FFFFFF 		movl	$-1, %eax
 156      FF
 157 00a8 E9AB0100 		jmp	L9
 157      00
 158              	L8:
 159 00ad 8B550C   		movl	12(%ebp), %edx
 160 00b0 8B4508   		movl	8(%ebp), %eax
 161 00b3 01D0     		addl	%edx, %eax
 162 00b5 0FB600   		movzbl	(%eax), %eax
 163 00b8 84C0     		testb	%al, %al
 164 00ba 742D     		je	L10
 165 00bc 8B550C   		movl	12(%ebp), %edx
 166 00bf 8B4508   		movl	8(%ebp), %eax
 167 00c2 01D0     		addl	%edx, %eax
 168 00c4 0FB600   		movzbl	(%eax), %eax
 169 00c7 3C3B     		cmpb	$59, %al
 170 00c9 741E     		je	L10
 171 00cb 8B550C   		movl	12(%ebp), %edx
 172 00ce 8B4508   		movl	8(%ebp), %eax
 173 00d1 01D0     		addl	%edx, %eax
 174 00d3 0FB600   		movzbl	(%eax), %eax
 175 00d6 3C0A     		cmpb	$10, %al
 176 00d8 740F     		je	L10
 177 00da 8B550C   		movl	12(%ebp), %edx
 178 00dd 8B4508   		movl	8(%ebp), %eax
 179 00e0 01D0     		addl	%edx, %eax
 180 00e2 0FB600   		movzbl	(%eax), %eax
 181 00e5 3C0D     		cmpb	$13, %al
 182 00e7 750A     		jne	L11
 183              	L10:
 184 00e9 B81F0000 		movl	$31, %eax
 184      00
 185 00ee E9650100 		jmp	L9
 185      00
 186              	L11:
 187 00f3 8B550C   		movl	12(%ebp), %edx
 188 00f6 8B4508   		movl	8(%ebp), %eax
 189 00f9 01D0     		addl	%edx, %eax
 190 00fb 0FB600   		movzbl	(%eax), %eax
 191 00fe 3C20     		cmpb	$32, %al
 192 0100 742D     		je	L12
 193 0102 8B550C   		movl	12(%ebp), %edx
 194 0105 8B4508   		movl	8(%ebp), %eax
 195 0108 01D0     		addl	%edx, %eax
 196 010a 0FB600   		movzbl	(%eax), %eax
 197 010d 3C2E     		cmpb	$46, %al
 198 010f 741E     		je	L12
 199 0111 8B550C   		movl	12(%ebp), %edx
 200 0114 8B4508   		movl	8(%ebp), %eax
 201 0117 01D0     		addl	%edx, %eax
 202 0119 0FB600   		movzbl	(%eax), %eax
 203 011c 3C23     		cmpb	$35, %al
 204 011e 740F     		je	L12
 205 0120 8B550C   		movl	12(%ebp), %edx
 206 0123 8B4508   		movl	8(%ebp), %eax
 207 0126 01D0     		addl	%edx, %eax
 208 0128 0FB600   		movzbl	(%eax), %eax
 209 012b 3C09     		cmpb	$9, %al
 210 012d 750A     		jne	L13
 211              	L12:
 212 012f B80A0000 		movl	$10, %eax
 212      00
 213 0134 E91F0100 		jmp	L9
 213      00
 214              	L13:
 215 0139 8B550C   		movl	12(%ebp), %edx
 216 013c 8B4508   		movl	8(%ebp), %eax
 217 013f 01D0     		addl	%edx, %eax
 218 0141 0FB600   		movzbl	(%eax), %eax
 219 0144 0FBEC0   		movsbl	%al, %eax
 220 0147 83E830   		subl	$48, %eax
 221 014a 83F809   		cmpl	$9, %eax
 222 014d 7716     		ja	L14
 223 014f 8B550C   		movl	12(%ebp), %edx
 224 0152 8B4508   		movl	8(%ebp), %eax
 225 0155 01D0     		addl	%edx, %eax
 226 0157 0FB600   		movzbl	(%eax), %eax
 227 015a 0FBEC0   		movsbl	%al, %eax
 228 015d 83E830   		subl	$48, %eax
 229 0160 E9F30000 		jmp	L9
 229      00
 230              	L14:
 231 0165 8B550C   		movl	12(%ebp), %edx
 232 0168 8B4508   		movl	8(%ebp), %eax
 233 016b 01D0     		addl	%edx, %eax
 234 016d 0FB600   		movzbl	(%eax), %eax
 235 0170 0FBEC0   		movsbl	%al, %eax
 236 0173 83E821   		subl	$33, %eax
 237 0176 83F85B   		cmpl	$91, %eax
 238 0179 0F87CF00 		ja	L15
 238      0000
 239 017f 8B048558 		movl	L17(,%eax,4), %eax
 239      080000
 240 0186 FFE0     		jmp	*%eax
 241              		.section .rdata,"dr"
 242              		.align 4
 243              	L17:
 244 0858 AC010000 		.long	L16
 245 085c 4E020000 		.long	L15
 246 0860 4E020000 		.long	L15
 247 0864 4E020000 		.long	L15
 248 0868 4E020000 		.long	L15
 249 086c 4E020000 		.long	L15
 250 0870 4E020000 		.long	L15
 251 0874 88010000 		.long	L18
 252 0878 EB010000 		.long	L19
 253 087c 4E020000 		.long	L15
 254 0880 B8010000 		.long	L20
 255 0884 4E020000 		.long	L15
 256 0888 94010000 		.long	L21
 257 088c 4E020000 		.long	L15
 258 0890 4E020000 		.long	L15
 259 0894 4E020000 		.long	L15
 260 0898 4E020000 		.long	L15
 261 089c 4E020000 		.long	L15
 262 08a0 4E020000 		.long	L15
 263 08a4 4E020000 		.long	L15
 264 08a8 4E020000 		.long	L15
 265 08ac 4E020000 		.long	L15
 266 08b0 4E020000 		.long	L15
 267 08b4 4E020000 		.long	L15
 268 08b8 4E020000 		.long	L15
 269 08bc 4E020000 		.long	L15
 270 08c0 4E020000 		.long	L15
 271 08c4 4E020000 		.long	L15
 272 08c8 4E020000 		.long	L15
 273 08cc 4E020000 		.long	L15
 274 08d0 4E020000 		.long	L15
 275 08d4 4E020000 		.long	L15
 276 08d8 4E020000 		.long	L15
 277 08dc 4E020000 		.long	L15
 278 08e0 4E020000 		.long	L15
 279 08e4 4E020000 		.long	L15
 280 08e8 4E020000 		.long	L15
 281 08ec 4E020000 		.long	L15
 282 08f0 4E020000 		.long	L15
 283 08f4 4E020000 		.long	L15
 284 08f8 4E020000 		.long	L15
 285 08fc 4E020000 		.long	L15
 286 0900 4E020000 		.long	L15
 287 0904 4E020000 		.long	L15
 288 0908 F4010000 		.long	L22
 289 090c 4E020000 		.long	L15
 290 0910 4E020000 		.long	L15
 291 0914 4E020000 		.long	L15
 292 0918 C4010000 		.long	L23
 293 091c 4E020000 		.long	L15
 294 0920 4E020000 		.long	L15
 295 0924 E2010000 		.long	L24
 296 0928 4E020000 		.long	L15
 297 092c 4E020000 		.long	L15
 298 0930 FD010000 		.long	L25
 299 0934 4E020000 		.long	L15
 300 0938 4E020000 		.long	L15
 301 093c 4E020000 		.long	L15
 302 0940 D0010000 		.long	L26
 303 0944 4E020000 		.long	L15
 304 0948 D9010000 		.long	L27
 305 094c 4E020000 		.long	L15
 306 0950 4E020000 		.long	L15
 307 0954 4E020000 		.long	L15
 308 0958 4E020000 		.long	L15
 309 095c 45020000 		.long	L28
 310 0960 3C020000 		.long	L29
 311 0964 4E020000 		.long	L15
 312 0968 4E020000 		.long	L15
 313 096c 18020000 		.long	L30
 314 0970 4E020000 		.long	L15
 315 0974 4E020000 		.long	L15
 316 0978 06020000 		.long	L31
 317 097c 4E020000 		.long	L15
 318 0980 4E020000 		.long	L15
 319 0984 4E020000 		.long	L15
 320 0988 2A020000 		.long	L32
 321 098c 4E020000 		.long	L15
 322 0990 4E020000 		.long	L15
 323 0994 4E020000 		.long	L15
 324 0998 0F020000 		.long	L33
 325 099c 21020000 		.long	L34
 326 09a0 4E020000 		.long	L15
 327 09a4 33020000 		.long	L35
 328 09a8 4E020000 		.long	L15
 329 09ac 4E020000 		.long	L15
 330 09b0 4E020000 		.long	L15
 331 09b4 4E020000 		.long	L15
 332 09b8 4E020000 		.long	L15
 333 09bc 4E020000 		.long	L15
 334 09c0 4E020000 		.long	L15
 335 09c4 A0010000 		.long	L36
 336              		.text
 337              	L18:
 338 0188 C745F40B 		movl	$11, -12(%ebp)
 338      000000
 339 018f E9C10000 		jmp	L37
 339      00
 340              	L21:
 341 0194 C745F40C 		movl	$12, -12(%ebp)
 341      000000
 342 019b E9B50000 		jmp	L37
 342      00
 343              	L36:
 344 01a0 C745F40D 		movl	$13, -12(%ebp)
 344      000000
 345 01a7 E9A90000 		jmp	L37
 345      00
 346              	L16:
 347 01ac C745F40E 		movl	$14, -12(%ebp)
 347      000000
 348 01b3 E99D0000 		jmp	L37
 348      00
 349              	L20:
 350 01b8 C745F40F 		movl	$15, -12(%ebp)
 350      000000
 351 01bf E9910000 		jmp	L37
 351      00
 352              	L23:
 353 01c4 C745F41B 		movl	$27, -12(%ebp)
 353      000000
 354 01cb E9850000 		jmp	L37
 354      00
 355              	L26:
 356 01d0 C745F410 		movl	$16, -12(%ebp)
 356      000000
 357 01d7 EB7C     		jmp	L37
 358              	L27:
 359 01d9 C745F411 		movl	$17, -12(%ebp)
 359      000000
 360 01e0 EB73     		jmp	L37
 361              	L24:
 362 01e2 C745F41C 		movl	$28, -12(%ebp)
 362      000000
 363 01e9 EB6A     		jmp	L37
 364              	L19:
 365 01eb C745F412 		movl	$18, -12(%ebp)
 365      000000
 366 01f2 EB61     		jmp	L37
 367              	L22:
 368 01f4 C745F41D 		movl	$29, -12(%ebp)
 368      000000
 369 01fb EB58     		jmp	L37
 370              	L25:
 371 01fd C745F41E 		movl	$30, -12(%ebp)
 371      000000
 372 0204 EB4F     		jmp	L37
 373              	L31:
 374 0206 C745F413 		movl	$19, -12(%ebp)
 374      000000
 375 020d EB46     		jmp	L37
 376              	L33:
 377 020f C745F41A 		movl	$26, -12(%ebp)
 377      000000
 378 0216 EB3D     		jmp	L37
 379              	L30:
 380 0218 C745F414 		movl	$20, -12(%ebp)
 380      000000
 381 021f EB34     		jmp	L37
 382              	L34:
 383 0221 C745F418 		movl	$24, -12(%ebp)
 383      000000
 384 0228 EB2B     		jmp	L37
 385              	L32:
 386 022a C745F415 		movl	$21, -12(%ebp)
 386      000000
 387 0231 EB22     		jmp	L37
 388              	L35:
 389 0233 C745F419 		movl	$25, -12(%ebp)
 389      000000
 390 023a EB19     		jmp	L37
 391              	L29:
 392 023c C745F416 		movl	$22, -12(%ebp)
 392      000000
 393 0243 EB10     		jmp	L37
 394              	L28:
 395 0245 C745F417 		movl	$23, -12(%ebp)
 395      000000
 396 024c EB07     		jmp	L37
 397              	L15:
 398 024e C745F4FE 		movl	$-2, -12(%ebp)
 398      FFFFFF
 399              	L37:
 400 0255 8B45F4   		movl	-12(%ebp), %eax
 401              	L9:
 402 0258 83C424   		addl	$36, %esp
 403 025b 5B       		popl	%ebx
 404 025c 5D       		popl	%ebp
 405 025d C3       		ret
 406              		.globl	_resolve_operand
 408              	_resolve_operand:
 409 025e 55       		pushl	%ebp
 410 025f 89E5     		movl	%esp, %ebp
 411 0261 83EC28   		subl	$40, %esp
 412 0264 C745F4FB 		movl	$-5, -12(%ebp)
 412      FFFFFF
 413 026b 8B450C   		movl	12(%ebp), %eax
 414 026e 83E813   		subl	$19, %eax
 415 0271 83F807   		cmpl	$7, %eax
 416 0274 0F87A201 		ja	L39
 416      0000
 417 027a 8B0485C8 		movl	L41(,%eax,4), %eax
 417      090000
 418 0281 FFE0     		jmp	*%eax
 419              		.section .rdata,"dr"
 420              		.align 4
 421              	L41:
 422 09c8 83020000 		.long	L40
 423 09cc F7020000 		.long	L42
 424 09d0 6B030000 		.long	L43
 425 09d4 D3030000 		.long	L44
 426 09d8 EB030000 		.long	L45
 427 09dc 31030000 		.long	L46
 428 09e0 A2030000 		.long	L47
 429 09e4 BD020000 		.long	L48
 430              		.text
 431              	L40:
 432 0283 837D1000 		cmpl	$0, 16(%ebp)
 433 0287 782F     		js	L49
 434 0289 A1000000 		movl	_Di, %eax
 434      00
 435 028e C1E003   		sall	$3, %eax
 436 0291 3B4510   		cmpl	16(%ebp), %eax
 437 0294 7E22     		jle	L49
 438 0296 8B4510   		movl	16(%ebp), %eax
 439 0299 89442408 		movl	%eax, 8(%esp)
 440 029d C7442404 		movl	$0, 4(%esp)
 440      00000000 
 441 02a5 8B4508   		movl	8(%ebp), %eax
 442 02a8 890424   		movl	%eax, (%esp)
 443 02ab E8000000 		call	_resolve
 443      00
 444 02b0 8945F4   		movl	%eax, -12(%ebp)
 445 02b3 E96B0100 		jmp	L50
 445      00
 446              	L49:
 447 02b8 E9660100 		jmp	L50
 447      00
 448              	L48:
 449 02bd 837D1000 		cmpl	$0, 16(%ebp)
 450 02c1 782F     		js	L51
 451 02c3 A1000000 		movl	_Dq, %eax
 451      00
 452 02c8 C1E003   		sall	$3, %eax
 453 02cb 3B4510   		cmpl	16(%ebp), %eax
 454 02ce 7E22     		jle	L51
 455 02d0 8B4510   		movl	16(%ebp), %eax
 456 02d3 89442408 		movl	%eax, 8(%esp)
 457 02d7 C7442404 		movl	$1, 4(%esp)
 457      01000000 
 458 02df 8B4508   		movl	8(%ebp), %eax
 459 02e2 890424   		movl	%eax, (%esp)
 460 02e5 E8000000 		call	_resolve
 460      00
 461 02ea 8945F4   		movl	%eax, -12(%ebp)
 462 02ed E9310100 		jmp	L50
 462      00
 463              	L51:
 464 02f2 E92C0100 		jmp	L50
 464      00
 465              	L42:
 466 02f7 837D1000 		cmpl	$0, 16(%ebp)
 467 02fb 782F     		js	L52
 468 02fd A1000000 		movl	_Di, %eax
 468      00
 469 0302 C1E003   		sall	$3, %eax
 470 0305 3B4510   		cmpl	16(%ebp), %eax
 471 0308 7E22     		jle	L52
 472 030a 8B4510   		movl	16(%ebp), %eax
 473 030d 89442408 		movl	%eax, 8(%esp)
 474 0311 C7442404 		movl	$0, 4(%esp)
 474      00000000 
 475 0319 8B4508   		movl	8(%ebp), %eax
 476 031c 890424   		movl	%eax, (%esp)
 477 031f E8000000 		call	_fe
 477      00
 478 0324 8945F4   		movl	%eax, -12(%ebp)
 479 0327 E9F70000 		jmp	L50
 479      00
 480              	L52:
 481 032c E9F20000 		jmp	L50
 481      00
 482              	L46:
 483 0331 837D1000 		cmpl	$0, 16(%ebp)
 484 0335 782F     		js	L53
 485 0337 A1000000 		movl	_Di, %eax
 485      00
 486 033c C1E003   		sall	$3, %eax
 487 033f 3B4510   		cmpl	16(%ebp), %eax
 488 0342 7E22     		jle	L53
 489 0344 8B4510   		movl	16(%ebp), %eax
 490 0347 89442408 		movl	%eax, 8(%esp)
 491 034b C7442404 		movl	$0, 4(%esp)
 491      00000000 
 492 0353 8B4508   		movl	8(%ebp), %eax
 493 0356 890424   		movl	%eax, (%esp)
 494 0359 E8000000 		call	_re
 494      00
 495 035e 8945F4   		movl	%eax, -12(%ebp)
 496 0361 E9BD0000 		jmp	L50
 496      00
 497              	L53:
 498 0366 E9B80000 		jmp	L50
 498      00
 499              	L43:
 500 036b 837D1000 		cmpl	$0, 16(%ebp)
 501 036f 782C     		js	L54
 502 0371 A1000000 		movl	_Nm, %eax
 502      00
 503 0376 394510   		cmpl	%eax, 16(%ebp)
 504 0379 7D22     		jge	L54
 505 037b 8B4510   		movl	16(%ebp), %eax
 506 037e 89442408 		movl	%eax, 8(%esp)
 507 0382 C7442404 		movl	$2, 4(%esp)
 507      02000000 
 508 038a 8B4508   		movl	8(%ebp), %eax
 509 038d 890424   		movl	%eax, (%esp)
 510 0390 E8000000 		call	_resolve
 510      00
 511 0395 8945F4   		movl	%eax, -12(%ebp)
 512 0398 E9860000 		jmp	L50
 512      00
 513              	L54:
 514 039d E9810000 		jmp	L50
 514      00
 515              	L47:
 516 03a2 837D1000 		cmpl	$0, 16(%ebp)
 517 03a6 7829     		js	L55
 518 03a8 A1000000 		movl	_Nt, %eax
 518      00
 519 03ad 394510   		cmpl	%eax, 16(%ebp)
 520 03b0 7D1F     		jge	L55
 521 03b2 8B4510   		movl	16(%ebp), %eax
 522 03b5 89442408 		movl	%eax, 8(%esp)
 523 03b9 C7442404 		movl	$3, 4(%esp)
 523      03000000 
 524 03c1 8B4508   		movl	8(%ebp), %eax
 525 03c4 890424   		movl	%eax, (%esp)
 526 03c7 E8000000 		call	_resolve
 526      00
 527 03cc 8945F4   		movl	%eax, -12(%ebp)
 528 03cf EB52     		jmp	L50
 529              	L55:
 530 03d1 EB50     		jmp	L50
 531              	L44:
 532 03d3 0FB60500 		movzbl	_Command, %eax
 532      000000
 533 03da 0FB6C0   		movzbl	%al, %eax
 534 03dd 3B4510   		cmpl	16(%ebp), %eax
 535 03e0 0F94C0   		sete	%al
 536 03e3 0FB6C0   		movzbl	%al, %eax
 537 03e6 8945F4   		movl	%eax, -12(%ebp)
 538 03e9 EB38     		jmp	L50
 539              	L45:
 540 03eb 837D1000 		cmpl	$0, 16(%ebp)
 541 03ef 7829     		js	L56
 542 03f1 A1000000 		movl	_Ns, %eax
 542      00
 543 03f6 394510   		cmpl	%eax, 16(%ebp)
 544 03f9 7D1F     		jge	L56
 545 03fb 8B4510   		movl	16(%ebp), %eax
 546 03fe 89442408 		movl	%eax, 8(%esp)
 547 0402 C7442404 		movl	$4, 4(%esp)
 547      04000000 
 548 040a 8B4508   		movl	8(%ebp), %eax
 549 040d 890424   		movl	%eax, (%esp)
 550 0410 E8000000 		call	_resolve
 550      00
 551 0415 8945F4   		movl	%eax, -12(%ebp)
 552 0418 EB09     		jmp	L50
 553              	L56:
 554 041a EB07     		jmp	L50
 555              	L39:
 556 041c C745F4FF 		movl	$-1, -12(%ebp)
 556      FFFFFF
 557              	L50:
 558 0423 8B45F4   		movl	-12(%ebp), %eax
 559 0426 C9       		leave
 560 0427 C3       		ret
 561              		.globl	_resolve_coil
 563              	_resolve_coil:
 564 0428 55       		pushl	%ebp
 565 0429 89E5     		movl	%esp, %ebp
 566 042b 83EC28   		subl	$40, %esp
 567 042e C745F401 		movl	$1, -12(%ebp)
 567      000000
 568 0435 8B450C   		movl	12(%ebp), %eax
 569 0438 83E812   		subl	$18, %eax
 570 043b 83F80C   		cmpl	$12, %eax
 571 043e 0F872201 		ja	L59
 571      0000
 572 0444 8B0485E8 		movl	L61(,%eax,4), %eax
 572      090000
 573 044b FFE0     		jmp	*%eax
 574              		.section .rdata,"dr"
 575              		.align 4
 576              	L61:
 577 09e8 E0040000 		.long	L60
 578 09ec 66050000 		.long	L59
 579 09f0 66050000 		.long	L59
 580 09f4 66050000 		.long	L59
 581 09f8 66050000 		.long	L59
 582 09fc 66050000 		.long	L59
 583 0a00 66050000 		.long	L59
 584 0a04 66050000 		.long	L59
 585 0a08 66050000 		.long	L59
 586 0a0c 4D040000 		.long	L62
 587 0a10 98040000 		.long	L63
 588 0a14 1A050000 		.long	L64
 589 0a18 5C050000 		.long	L65
 590              		.text
 591              	L62:
 592 044d 837D1000 		cmpl	$0, 16(%ebp)
 593 0451 7839     		js	L66
 594 0453 A1000000 		movl	_Dq, %eax
 594      00
 595 0458 C1E003   		sall	$3, %eax
 596 045b 3B4510   		cmpl	16(%ebp), %eax
 597 045e 7E2C     		jle	L66
 598 0460 8B4514   		movl	20(%ebp), %eax
 599 0463 0FB6C0   		movzbl	%al, %eax
 600 0466 8944240C 		movl	%eax, 12(%esp)
 601 046a 8B4510   		movl	16(%ebp), %eax
 602 046d 89442408 		movl	%eax, 8(%esp)
 603 0471 C7442404 		movl	$1, 4(%esp)
 603      01000000 
 604 0479 8B4508   		movl	8(%ebp), %eax
 605 047c 890424   		movl	%eax, (%esp)
 606 047f E8000000 		call	_contact
 606      00
 607 0484 8945F4   		movl	%eax, -12(%ebp)
 608 0487 E9E10000 		jmp	L68
 608      00
 609              	L66:
 610 048c C745F4FB 		movl	$-5, -12(%ebp)
 610      FFFFFF
 611 0493 E9D50000 		jmp	L68
 611      00
 612              	L63:
 613 0498 837D1000 		cmpl	$0, 16(%ebp)
 614 049c 7831     		js	L69
 615 049e A1000000 		movl	_Nt, %eax
 615      00
 616 04a3 394510   		cmpl	%eax, 16(%ebp)
 617 04a6 7D27     		jge	L69
 618 04a8 837D1400 		cmpl	$0, 20(%ebp)
 619 04ac 741F     		je	L70
 620 04ae 8B4510   		movl	16(%ebp), %eax
 621 04b1 89442408 		movl	%eax, 8(%esp)
 622 04b5 C7442404 		movl	$3, 4(%esp)
 622      03000000 
 623 04bd 8B4508   		movl	8(%ebp), %eax
 624 04c0 890424   		movl	%eax, (%esp)
 625 04c3 E8000000 		call	_set
 625      00
 626 04c8 8945F4   		movl	%eax, -12(%ebp)
 627 04cb EB0E     		jmp	L71
 628              	L70:
 629 04cd EB0C     		jmp	L71
 630              	L69:
 631 04cf C745F4FB 		movl	$-5, -12(%ebp)
 631      FFFFFF
 632 04d6 E9920000 		jmp	L68
 632      00
 633              	L71:
 634 04db E98D0000 		jmp	L68
 634      00
 635              	L60:
 636 04e0 837D1000 		cmpl	$0, 16(%ebp)
 637 04e4 7829     		js	L72
 638 04e6 A1000000 		movl	_Nt, %eax
 638      00
 639 04eb 394510   		cmpl	%eax, 16(%ebp)
 640 04ee 7D1F     		jge	L72
 641 04f0 837D1400 		cmpl	$0, 20(%ebp)
 642 04f4 7417     		je	L73
 643 04f6 8B4510   		movl	16(%ebp), %eax
 644 04f9 89442404 		movl	%eax, 4(%esp)
 645 04fd 8B4508   		movl	8(%ebp), %eax
 646 0500 890424   		movl	%eax, (%esp)
 647 0503 E8000000 		call	_down_timer
 647      00
 648 0508 8945F4   		movl	%eax, -12(%ebp)
 649 050b EB0B     		jmp	L74
 650              	L73:
 651 050d EB09     		jmp	L74
 652              	L72:
 653 050f C745F4FB 		movl	$-5, -12(%ebp)
 653      FFFFFF
 654 0516 EB55     		jmp	L68
 655              	L74:
 656 0518 EB53     		jmp	L68
 657              	L64:
 658 051a 837D1000 		cmpl	$0, 16(%ebp)
 659 051e 7833     		js	L75
 660 0520 A1000000 		movl	_Nm, %eax
 660      00
 661 0525 394510   		cmpl	%eax, 16(%ebp)
 662 0528 7D29     		jge	L75
 663 052a 8B4514   		movl	20(%ebp), %eax
 664 052d 0FB6C0   		movzbl	%al, %eax
 665 0530 8944240C 		movl	%eax, 12(%esp)
 666 0534 8B4510   		movl	16(%ebp), %eax
 667 0537 89442408 		movl	%eax, 8(%esp)
 668 053b C7442404 		movl	$2, 4(%esp)
 668      02000000 
 669 0543 8B4508   		movl	8(%ebp), %eax
 670 0546 890424   		movl	%eax, (%esp)
 671 0549 E8000000 		call	_contact
 671      00
 672 054e 8945F4   		movl	%eax, -12(%ebp)
 673 0551 EB1A     		jmp	L68
 674              	L75:
 675 0553 C745F4FB 		movl	$-5, -12(%ebp)
 675      FFFFFF
 676 055a EB11     		jmp	L68
 677              	L65:
 678 055c 8B4510   		movl	16(%ebp), %eax
 679 055f A2000000 		movb	%al, _Response
 679      00
 680 0564 EB07     		jmp	L68
 681              	L59:
 682 0566 C745F4FA 		movl	$-6, -12(%ebp)
 682      FFFFFF
 683              	L68:
 684 056d 8B45F4   		movl	-12(%ebp), %eax
 685 0570 C9       		leave
 686 0571 C3       		ret
 687              		.globl	_resolve_set
 689              	_resolve_set:
 690 0572 55       		pushl	%ebp
 691 0573 89E5     		movl	%esp, %ebp
 692 0575 83EC28   		subl	$40, %esp
 693 0578 C745F401 		movl	$1, -12(%ebp)
 693      000000
 694 057f 8B450C   		movl	12(%ebp), %eax
 695 0582 83F81C   		cmpl	$28, %eax
 696 0585 745D     		je	L80
 697 0587 83F81D   		cmpl	$29, %eax
 698 058a 0F849600 		je	L81
 698      0000
 699 0590 83F81B   		cmpl	$27, %eax
 700 0593 0F85CF00 		jne	L94
 700      0000
 701 0599 837D1000 		cmpl	$0, 16(%ebp)
 702 059d 7834     		js	L83
 703 059f A1000000 		movl	_Dq, %eax
 703      00
 704 05a4 C1E003   		sall	$3, %eax
 705 05a7 3B4510   		cmpl	16(%ebp), %eax
 706 05aa 7E27     		jle	L83
 707 05ac 837D1400 		cmpl	$0, 20(%ebp)
 708 05b0 741F     		je	L84
 709 05b2 8B4510   		movl	16(%ebp), %eax
 710 05b5 89442408 		movl	%eax, 8(%esp)
 711 05b9 C7442404 		movl	$1, 4(%esp)
 711      01000000 
 712 05c1 8B4508   		movl	8(%ebp), %eax
 713 05c4 890424   		movl	%eax, (%esp)
 714 05c7 E8000000 		call	_set
 714      00
 715 05cc 8945F4   		movl	%eax, -12(%ebp)
 716 05cf EB0E     		jmp	L85
 717              	L84:
 718 05d1 EB0C     		jmp	L85
 719              	L83:
 720 05d3 C745F4FB 		movl	$-5, -12(%ebp)
 720      FFFFFF
 721 05da E9900000 		jmp	L86
 721      00
 722              	L85:
 723 05df E98B0000 		jmp	L86
 723      00
 724              	L80:
 725 05e4 837D1000 		cmpl	$0, 16(%ebp)
 726 05e8 7831     		js	L87
 727 05ea A1000000 		movl	_Nt, %eax
 727      00
 728 05ef 394510   		cmpl	%eax, 16(%ebp)
 729 05f2 7D27     		jge	L87
 730 05f4 837D1400 		cmpl	$0, 20(%ebp)
 731 05f8 741F     		je	L88
 732 05fa 8B4510   		movl	16(%ebp), %eax
 733 05fd 89442408 		movl	%eax, 8(%esp)
 734 0601 C7442404 		movl	$3, 4(%esp)
 734      03000000 
 735 0609 8B4508   		movl	8(%ebp), %eax
 736 060c 890424   		movl	%eax, (%esp)
 737 060f E8000000 		call	_set
 737      00
 738 0614 8945F4   		movl	%eax, -12(%ebp)
 739 0617 EB0B     		jmp	L89
 740              	L88:
 741 0619 EB09     		jmp	L89
 742              	L87:
 743 061b C745F4FB 		movl	$-5, -12(%ebp)
 743      FFFFFF
 744 0622 EB4B     		jmp	L86
 745              	L89:
 746 0624 EB49     		jmp	L86
 747              	L81:
 748 0626 837D1000 		cmpl	$0, 16(%ebp)
 749 062a 7831     		js	L90
 750 062c A1000000 		movl	_Nm, %eax
 750      00
 751 0631 394510   		cmpl	%eax, 16(%ebp)
 752 0634 7D27     		jge	L90
 753 0636 837D1400 		cmpl	$0, 20(%ebp)
 754 063a 741F     		je	L91
 755 063c 8B4510   		movl	16(%ebp), %eax
 756 063f 89442408 		movl	%eax, 8(%esp)
 757 0643 C7442404 		movl	$2, 4(%esp)
 757      02000000 
 758 064b 8B4508   		movl	8(%ebp), %eax
 759 064e 890424   		movl	%eax, (%esp)
 760 0651 E8000000 		call	_set
 760      00
 761 0656 8945F4   		movl	%eax, -12(%ebp)
 762 0659 EB0B     		jmp	L92
 763              	L91:
 764 065b EB09     		jmp	L92
 765              	L90:
 766 065d C745F4FB 		movl	$-5, -12(%ebp)
 766      FFFFFF
 767 0664 EB09     		jmp	L86
 768              	L92:
 769 0666 EB07     		jmp	L86
 770              	L94:
 771 0668 C745F4FA 		movl	$-6, -12(%ebp)
 771      FFFFFF
 772              	L86:
 773 066f 8B45F4   		movl	-12(%ebp), %eax
 774 0672 C9       		leave
 775 0673 C3       		ret
 776              		.globl	_resolve_reset
 778              	_resolve_reset:
 779 0674 55       		pushl	%ebp
 780 0675 89E5     		movl	%esp, %ebp
 781 0677 83EC28   		subl	$40, %esp
 782 067a C745F401 		movl	$1, -12(%ebp)
 782      000000
 783 0681 8B450C   		movl	12(%ebp), %eax
 784 0684 83F81C   		cmpl	$28, %eax
 785 0687 745D     		je	L97
 786 0689 83F81D   		cmpl	$29, %eax
 787 068c 0F848E00 		je	L98
 787      0000
 788 0692 83F81B   		cmpl	$27, %eax
 789 0695 0F85C700 		jne	L111
 789      0000
 790 069b 837D1000 		cmpl	$0, 16(%ebp)
 791 069f 7834     		js	L100
 792 06a1 A1000000 		movl	_Dq, %eax
 792      00
 793 06a6 C1E003   		sall	$3, %eax
 794 06a9 3B4510   		cmpl	16(%ebp), %eax
 795 06ac 7E27     		jle	L100
 796 06ae 837D1400 		cmpl	$0, 20(%ebp)
 797 06b2 741F     		je	L101
 798 06b4 8B4510   		movl	16(%ebp), %eax
 799 06b7 89442408 		movl	%eax, 8(%esp)
 800 06bb C7442404 		movl	$1, 4(%esp)
 800      01000000 
 801 06c3 8B4508   		movl	8(%ebp), %eax
 802 06c6 890424   		movl	%eax, (%esp)
 803 06c9 E8000000 		call	_reset
 803      00
 804 06ce 8945F4   		movl	%eax, -12(%ebp)
 805 06d1 EB0E     		jmp	L102
 806              	L101:
 807 06d3 EB0C     		jmp	L102
 808              	L100:
 809 06d5 C745F4FB 		movl	$-5, -12(%ebp)
 809      FFFFFF
 810 06dc E9880000 		jmp	L103
 810      00
 811              	L102:
 812 06e1 E9830000 		jmp	L103
 812      00
 813              	L97:
 814 06e6 837D1000 		cmpl	$0, 16(%ebp)
 815 06ea 7829     		js	L104
 816 06ec A1000000 		movl	_Nt, %eax
 816      00
 817 06f1 394510   		cmpl	%eax, 16(%ebp)
 818 06f4 7D1F     		jge	L104
 819 06f6 837D1400 		cmpl	$0, 20(%ebp)
 820 06fa 7417     		je	L105
 821 06fc 8B4510   		movl	16(%ebp), %eax
 822 06ff 89442404 		movl	%eax, 4(%esp)
 823 0703 8B4508   		movl	8(%ebp), %eax
 824 0706 890424   		movl	%eax, (%esp)
 825 0709 E8000000 		call	_down_timer
 825      00
 826 070e 8945F4   		movl	%eax, -12(%ebp)
 827 0711 EB0B     		jmp	L106
 828              	L105:
 829 0713 EB09     		jmp	L106
 830              	L104:
 831 0715 C745F4FB 		movl	$-5, -12(%ebp)
 831      FFFFFF
 832 071c EB4B     		jmp	L103
 833              	L106:
 834 071e EB49     		jmp	L103
 835              	L98:
 836 0720 837D1000 		cmpl	$0, 16(%ebp)
 837 0724 7831     		js	L107
 838 0726 A1000000 		movl	_Nm, %eax
 838      00
 839 072b 394510   		cmpl	%eax, 16(%ebp)
 840 072e 7D27     		jge	L107
 841 0730 837D1400 		cmpl	$0, 20(%ebp)
 842 0734 741F     		je	L108
 843 0736 8B4510   		movl	16(%ebp), %eax
 844 0739 89442408 		movl	%eax, 8(%esp)
 845 073d C7442404 		movl	$2, 4(%esp)
 845      02000000 
 846 0745 8B4508   		movl	8(%ebp), %eax
 847 0748 890424   		movl	%eax, (%esp)
 848 074b E8000000 		call	_reset
 848      00
 849 0750 8945F4   		movl	%eax, -12(%ebp)
 850 0753 EB0B     		jmp	L109
 851              	L108:
 852 0755 EB09     		jmp	L109
 853              	L107:
 854 0757 C745F4FB 		movl	$-5, -12(%ebp)
 854      FFFFFF
 855 075e EB09     		jmp	L103
 856              	L109:
 857 0760 EB07     		jmp	L103
 858              	L111:
 859 0762 C745F4FA 		movl	$-6, -12(%ebp)
 859      FFFFFF
 860              	L103:
 861 0769 8B45F4   		movl	-12(%ebp), %eax
 862 076c C9       		leave
 863 076d C3       		ret
 864              		.section .rdata,"dr"
 865              	LC0:
 866 0a1c 6C3D2573 		.ascii "l=%s\12\0"
 866      0A00
 867              	LC1:
 868 0a22 433D2020 		.ascii "C=  %c\12\0"
 868      25630A00 
 869              	LC2:
 870 0a2a 4E3A5661 		.ascii "N:Val[%d]=%d,Pos[%d]=%d\12\0"
 870      6C5B2564 
 870      5D3D2564 
 870      2C506F73 
 870      5B25645D 
 871              	LC3:
 872 0a43 7265736F 		.ascii "resolve=%d\12\0"
 872      6C76653D 
 872      25640A00 
 873              	LC4:
 874 0a4f 433A5661 		.ascii "C:Val[%d]=%d\12\0"
 874      6C5B2564 
 874      5D3D2564 
 874      0A00
 875              		.text
 876              		.globl	_resolve_lines
 878              	_resolve_lines:
 879 076e 55       		pushl	%ebp
 880 076f 89E5     		movl	%esp, %ebp
 881 0771 81ECA80A 		subl	$2728, %esp
 881      0000
 882 0777 C685D4F5 		movb	$0, -2604(%ebp)
 882      FFFF00
 883 077e C745EC00 		movl	$0, -20(%ebp)
 883      000000
 884 0785 C745F400 		movl	$0, -12(%ebp)
 884      000000
 885 078c E9710500 		jmp	L113
 885      00
 886              	L150:
 887 0791 C745E800 		movl	$0, -24(%ebp)
 887      000000
 888 0798 8B45F4   		movl	-12(%ebp), %eax
 889 079b C1E00A   		sall	$10, %eax
 890 079e 05000000 		addl	$_Lines, %eax
 890      00
 891 07a3 8945E0   		movl	%eax, -32(%ebp)
 892 07a6 8B45E0   		movl	-32(%ebp), %eax
 893 07a9 89442404 		movl	%eax, 4(%esp)
 894 07ad C704241C 		movl	$LC0, (%esp)
 894      0A0000
 895 07b4 E8000000 		call	_printf
 895      00
 896 07b9 C745F00C 		movl	$12, -16(%ebp)
 896      000000
 897 07c0 E9DA0400 		jmp	L114
 897      00
 898              	L147:
 899 07c5 8B45F4   		movl	-12(%ebp), %eax
 900 07c8 8B048500 		movl	_Pos(,%eax,4), %eax
 900      000000
 901 07cf 89442404 		movl	%eax, 4(%esp)
 902 07d3 8B45E0   		movl	-32(%ebp), %eax
 903 07d6 890424   		movl	%eax, (%esp)
 904 07d9 E8A5F8FF 		call	_read_char
 904      FF
 905 07de 8945F0   		movl	%eax, -16(%ebp)
 906 07e1 8B45F4   		movl	-12(%ebp), %eax
 907 07e4 8B048500 		movl	_Pos(,%eax,4), %eax
 907      000000
 908 07eb 89C2     		movl	%eax, %edx
 909 07ed 8B45E0   		movl	-32(%ebp), %eax
 910 07f0 01D0     		addl	%edx, %eax
 911 07f2 0FB600   		movzbl	(%eax), %eax
 912 07f5 0FBEC0   		movsbl	%al, %eax
 913 07f8 89442404 		movl	%eax, 4(%esp)
 914 07fc C7042422 		movl	$LC1, (%esp)
 914      0A0000
 915 0803 E8000000 		call	_printf
 915      00
 916 0808 8B45F0   		movl	-16(%ebp), %eax
 917 080b 83C002   		addl	$2, %eax
 918 080e 83F821   		cmpl	$33, %eax
 919 0811 0F87EE02 		ja	L115
 919      0000
 920 0817 8B048560 		movl	L117(,%eax,4), %eax
 920      0A0000
 921 081e FFE0     		jmp	*%eax
 922              		.section .rdata,"dr"
 923 0a5d 000000   		.align 4
 924              	L117:
 925 0a60 20080000 		.long	L116
 926 0a64 050B0000 		.long	L115
 927 0a68 050B0000 		.long	L115
 928 0a6c 050B0000 		.long	L115
 929 0a70 050B0000 		.long	L115
 930 0a74 050B0000 		.long	L115
 931 0a78 050B0000 		.long	L115
 932 0a7c 050B0000 		.long	L115
 933 0a80 050B0000 		.long	L115
 934 0a84 050B0000 		.long	L115
 935 0a88 050B0000 		.long	L115
 936 0a8c 050B0000 		.long	L115
 937 0a90 4C080000 		.long	L118
 938 0a94 FC080000 		.long	L119
 939 0a98 7A080000 		.long	L120
 940 0a9c 4C080000 		.long	L118
 941 0aa0 73080000 		.long	L121
 942 0aa4 96080000 		.long	L122
 943 0aa8 FC080000 		.long	L119
 944 0aac FC080000 		.long	L119
 945 0ab0 FC080000 		.long	L119
 946 0ab4 050B0000 		.long	L115
 947 0ab8 050B0000 		.long	L115
 948 0abc 050B0000 		.long	L115
 949 0ac0 050B0000 		.long	L115
 950 0ac4 050B0000 		.long	L115
 951 0ac8 050B0000 		.long	L115
 952 0acc 050B0000 		.long	L115
 953 0ad0 050B0000 		.long	L115
 954 0ad4 050B0000 		.long	L115
 955 0ad8 050B0000 		.long	L115
 956 0adc 050B0000 		.long	L115
 957 0ae0 050B0000 		.long	L115
 958 0ae4 39080000 		.long	L123
 959              		.text
 960              	L116:
 961 0820 8B45F0   		movl	-16(%ebp), %eax
 962 0823 8945EC   		movl	%eax, -20(%ebp)
 963 0826 8B45F4   		movl	-12(%ebp), %eax
 964 0829 C7048500 		movl	$-1, _Pos(,%eax,4)
 964      000000FF 
 964      FFFFFF
 965 0834 E9340400 		jmp	L124
 965      00
 966              	L123:
 967 0839 8B45F4   		movl	-12(%ebp), %eax
 968 083c C7048500 		movl	$-1, _Pos(,%eax,4)
 968      000000FF 
 968      FFFFFF
 969 0847 E9210400 		jmp	L124
 969      00
 970              	L118:
 971 084c 8B45F4   		movl	-12(%ebp), %eax
 972 084f 05000000 		addl	$_Val, %eax
 972      00
 973 0854 C60002   		movb	$2, (%eax)
 974 0857 8B45F4   		movl	-12(%ebp), %eax
 975 085a 8B048500 		movl	_Pos(,%eax,4), %eax
 975      000000
 976 0861 8D5001   		leal	1(%eax), %edx
 977 0864 8B45F4   		movl	-12(%ebp), %eax
 978 0867 89148500 		movl	%edx, _Pos(,%eax,4)
 978      000000
 979 086e E9FA0300 		jmp	L124
 979      00
 980              	L121:
 981 0873 C745E801 		movl	$1, -24(%ebp)
 981      000000
 982              	L120:
 983 087a 8B45F4   		movl	-12(%ebp), %eax
 984 087d 8B048500 		movl	_Pos(,%eax,4), %eax
 984      000000
 985 0884 8D5001   		leal	1(%eax), %edx
 986 0887 8B45F4   		movl	-12(%ebp), %eax
 987 088a 89148500 		movl	%edx, _Pos(,%eax,4)
 987      000000
 988 0891 E9D70300 		jmp	L124
 988      00
 989              	L122:
 990 0896 8B45F4   		movl	-12(%ebp), %eax
 991 0899 05000000 		addl	$_Val, %eax
 991      00
 992 089e 0FB600   		movzbl	(%eax), %eax
 993 08a1 3C01     		cmpb	$1, %al
 994 08a3 7618     		jbe	L125
 995 08a5 8B45F4   		movl	-12(%ebp), %eax
 996 08a8 05000000 		addl	$_Val, %eax
 996      00
 997 08ad 0FB600   		movzbl	(%eax), %eax
 998 08b0 8D50FE   		leal	-2(%eax), %edx
 999 08b3 8B45F4   		movl	-12(%ebp), %eax
 1000 08b6 05000000 		addl	$_Val, %eax
 1000      00
 1001 08bb 8810     		movb	%dl, (%eax)
 1002              	L125:
 1003 08bd 8B45F4   		movl	-12(%ebp), %eax
 1004 08c0 8B148500 		movl	_Pos(,%eax,4), %edx
 1004      000000
 1005 08c7 8B45F4   		movl	-12(%ebp), %eax
 1006 08ca 05000000 		addl	$_Val, %eax
 1006      00
 1007 08cf 0FB600   		movzbl	(%eax), %eax
 1008 08d2 0FB6C0   		movzbl	%al, %eax
 1009 08d5 89542410 		movl	%edx, 16(%esp)
 1010 08d9 8B55F4   		movl	-12(%ebp), %edx
 1011 08dc 8954240C 		movl	%edx, 12(%esp)
 1012 08e0 89442408 		movl	%eax, 8(%esp)
 1013 08e4 8B45F4   		movl	-12(%ebp), %eax
 1014 08e7 89442404 		movl	%eax, 4(%esp)
 1015 08eb C704242A 		movl	$LC2, (%esp)
 1015      0A0000
 1016 08f2 E8000000 		call	_printf
 1016      00
 1017 08f7 E9710300 		jmp	L124
 1017      00
 1018              	L119:
 1019 08fc 8B45F4   		movl	-12(%ebp), %eax
 1020 08ff 8B048500 		movl	_Pos(,%eax,4), %eax
 1020      000000
 1021 0906 8D5001   		leal	1(%eax), %edx
 1022 0909 8B45F4   		movl	-12(%ebp), %eax
 1023 090c 89148500 		movl	%edx, _Pos(,%eax,4)
 1023      000000
 1024 0913 8B45F0   		movl	-16(%ebp), %eax
 1025 0916 8945DC   		movl	%eax, -36(%ebp)
 1026 0919 8B45F4   		movl	-12(%ebp), %eax
 1027 091c 8B048500 		movl	_Pos(,%eax,4), %eax
 1027      000000
 1028 0923 89442404 		movl	%eax, 4(%esp)
 1029 0927 8B45E0   		movl	-32(%ebp), %eax
 1030 092a 890424   		movl	%eax, (%esp)
 1031 092d E851F7FF 		call	_read_char
 1031      FF
 1032 0932 8945F0   		movl	%eax, -16(%ebp)
 1033 0935 837DF01A 		cmpl	$26, -16(%ebp)
 1034 0939 0F8EB501 		jle	L126
 1034      0000
 1035 093f 837DF01E 		cmpl	$30, -16(%ebp)
 1036 0943 0F8FAB01 		jg	L126
 1036      0000
 1037 0949 8B45F0   		movl	-16(%ebp), %eax
 1038 094c 8945D8   		movl	%eax, -40(%ebp)
 1039 094f 8B45F4   		movl	-12(%ebp), %eax
 1040 0952 8B048500 		movl	_Pos(,%eax,4), %eax
 1040      000000
 1041 0959 89442404 		movl	%eax, 4(%esp)
 1042 095d 8B45E0   		movl	-32(%ebp), %eax
 1043 0960 890424   		movl	%eax, (%esp)
 1044 0963 E81BF7FF 		call	_read_char
 1044      FF
 1045 0968 8945F0   		movl	%eax, -16(%ebp)
 1046 096b 8B45F4   		movl	-12(%ebp), %eax
 1047 096e 8B048500 		movl	_Pos(,%eax,4), %eax
 1047      000000
 1048 0975 8D5001   		leal	1(%eax), %edx
 1049 0978 8B45F4   		movl	-12(%ebp), %eax
 1050 097b 89148500 		movl	%edx, _Pos(,%eax,4)
 1050      000000
 1051 0982 8B45F4   		movl	-12(%ebp), %eax
 1052 0985 8B048500 		movl	_Pos(,%eax,4), %eax
 1052      000000
 1053 098c 89442404 		movl	%eax, 4(%esp)
 1054 0990 8B45E0   		movl	-32(%ebp), %eax
 1055 0993 890424   		movl	%eax, (%esp)
 1056 0996 E865F6FF 		call	_extract_number
 1056      FF
 1057 099b 8945D4   		movl	%eax, -44(%ebp)
 1058 099e 837DD400 		cmpl	$0, -44(%ebp)
 1059 09a2 0F884301 		js	L127
 1059      0000
 1060 09a8 8D85D4F5 		leal	-2604(%ebp), %eax
 1060      FFFF
 1061 09ae 890424   		movl	%eax, (%esp)
 1062 09b1 E8000000 		call	_printf
 1062      00
 1063 09b6 8B45F4   		movl	-12(%ebp), %eax
 1064 09b9 05000000 		addl	$_Val, %eax
 1064      00
 1065 09be 0FB600   		movzbl	(%eax), %eax
 1066 09c1 3C01     		cmpb	$1, %al
 1067 09c3 0F861201 		jbe	L128
 1067      0000
 1068 09c9 8B45DC   		movl	-36(%ebp), %eax
 1069 09cc 83F810   		cmpl	$16, %eax
 1070 09cf 0F849300 		je	L130
 1070      0000
 1071 09d5 83F810   		cmpl	$16, %eax
 1072 09d8 7F0A     		jg	L131
 1073 09da 83F80B   		cmpl	$11, %eax
 1074 09dd 7418     		je	L132
 1075 09df E9E90000 		jmp	L129
 1075      00
 1076              	L131:
 1077 09e4 83F811   		cmpl	$17, %eax
 1078 09e7 0F84AE00 		je	L133
 1078      0000
 1079 09ed 83F812   		cmpl	$18, %eax
 1080 09f0 743B     		je	L134
 1081 09f2 E9D60000 		jmp	L129
 1081      00
 1082              	L132:
 1083 09f7 8B45F4   		movl	-12(%ebp), %eax
 1084 09fa 05000000 		addl	$_Val, %eax
 1084      00
 1085 09ff 0FB600   		movzbl	(%eax), %eax
 1086 0a02 0FB6C0   		movzbl	%al, %eax
 1087 0a05 83E001   		andl	$1, %eax
 1088 0a08 8944240C 		movl	%eax, 12(%esp)
 1089 0a0c 8B45D4   		movl	-44(%ebp), %eax
 1090 0a0f 89442408 		movl	%eax, 8(%esp)
 1091 0a13 8B45D8   		movl	-40(%ebp), %eax
 1092 0a16 89442404 		movl	%eax, 4(%esp)
 1093 0a1a 8B4508   		movl	8(%ebp), %eax
 1094 0a1d 890424   		movl	%eax, (%esp)
 1095 0a20 E803FAFF 		call	_resolve_coil
 1095      FF
 1096 0a25 8945EC   		movl	%eax, -20(%ebp)
 1097 0a28 E9A00000 		jmp	L129
 1097      00
 1098              	L134:
 1099 0a2d 8B45F4   		movl	-12(%ebp), %eax
 1100 0a30 05000000 		addl	$_Val, %eax
 1100      00
 1101 0a35 0FB600   		movzbl	(%eax), %eax
 1102 0a38 0FB6C0   		movzbl	%al, %eax
 1103 0a3b 83E001   		andl	$1, %eax
 1104 0a3e 85C0     		testl	%eax, %eax
 1105 0a40 0F94C0   		sete	%al
 1106 0a43 0FB6C0   		movzbl	%al, %eax
 1107 0a46 8944240C 		movl	%eax, 12(%esp)
 1108 0a4a 8B45D4   		movl	-44(%ebp), %eax
 1109 0a4d 89442408 		movl	%eax, 8(%esp)
 1110 0a51 8B45D8   		movl	-40(%ebp), %eax
 1111 0a54 89442404 		movl	%eax, 4(%esp)
 1112 0a58 8B4508   		movl	8(%ebp), %eax
 1113 0a5b 890424   		movl	%eax, (%esp)
 1114 0a5e E8C5F9FF 		call	_resolve_coil
 1114      FF
 1115 0a63 8945EC   		movl	%eax, -20(%ebp)
 1116 0a66 EB65     		jmp	L129
 1117              	L130:
 1118 0a68 8B45F4   		movl	-12(%ebp), %eax
 1119 0a6b 05000000 		addl	$_Val, %eax
 1119      00
 1120 0a70 0FB600   		movzbl	(%eax), %eax
 1121 0a73 0FB6C0   		movzbl	%al, %eax
 1122 0a76 83E001   		andl	$1, %eax
 1123 0a79 8944240C 		movl	%eax, 12(%esp)
 1124 0a7d 8B45D4   		movl	-44(%ebp), %eax
 1125 0a80 89442408 		movl	%eax, 8(%esp)
 1126 0a84 8B45D8   		movl	-40(%ebp), %eax
 1127 0a87 89442404 		movl	%eax, 4(%esp)
 1128 0a8b 8B4508   		movl	8(%ebp), %eax
 1129 0a8e 890424   		movl	%eax, (%esp)
 1130 0a91 E8DCFAFF 		call	_resolve_set
 1130      FF
 1131 0a96 8945EC   		movl	%eax, -20(%ebp)
 1132 0a99 EB32     		jmp	L129
 1133              	L133:
 1134 0a9b 8B45F4   		movl	-12(%ebp), %eax
 1135 0a9e 05000000 		addl	$_Val, %eax
 1135      00
 1136 0aa3 0FB600   		movzbl	(%eax), %eax
 1137 0aa6 0FB6C0   		movzbl	%al, %eax
 1138 0aa9 83E001   		andl	$1, %eax
 1139 0aac 8944240C 		movl	%eax, 12(%esp)
 1140 0ab0 8B45D4   		movl	-44(%ebp), %eax
 1141 0ab3 89442408 		movl	%eax, 8(%esp)
 1142 0ab7 8B45D8   		movl	-40(%ebp), %eax
 1143 0aba 89442404 		movl	%eax, 4(%esp)
 1144 0abe 8B4508   		movl	8(%ebp), %eax
 1145 0ac1 890424   		movl	%eax, (%esp)
 1146 0ac4 E8ABFBFF 		call	_resolve_reset
 1146      FF
 1147 0ac9 8945EC   		movl	%eax, -20(%ebp)
 1148 0acc 90       		nop
 1149              	L129:
 1150 0acd 8B45F4   		movl	-12(%ebp), %eax
 1151 0ad0 C7048500 		movl	$-2, _Pos(,%eax,4)
 1151      000000FE 
 1151      FFFFFF
 1152              	L128:
 1153 0adb 8B45F4   		movl	-12(%ebp), %eax
 1154 0ade C7048500 		movl	$-1, _Pos(,%eax,4)
 1154      000000FF 
 1154      FFFFFF
 1155 0ae9 EB15     		jmp	L136
 1156              	L127:
 1157 0aeb C745ECFB 		movl	$-5, -20(%ebp)
 1157      FFFFFF
 1158 0af2 EB0C     		jmp	L136
 1159              	L126:
 1160 0af4 C745ECFA 		movl	$-6, -20(%ebp)
 1160      FFFFFF
 1161 0afb E96D0100 		jmp	L124
 1161      00
 1162              	L136:
 1163 0b00 E9680100 		jmp	L124
 1163      00
 1164              	L115:
 1165 0b05 837DF012 		cmpl	$18, -16(%ebp)
 1166 0b09 0F8E4001 		jle	L137
 1166      0000
 1167 0b0f 837DF01A 		cmpl	$26, -16(%ebp)
 1168 0b13 0F8F3601 		jg	L137
 1168      0000
 1169 0b19 8B45F0   		movl	-16(%ebp), %eax
 1170 0b1c 8945D8   		movl	%eax, -40(%ebp)
 1171 0b1f 8B45F4   		movl	-12(%ebp), %eax
 1172 0b22 8B048500 		movl	_Pos(,%eax,4), %eax
 1172      000000
 1173 0b29 89442404 		movl	%eax, 4(%esp)
 1174 0b2d 8B45E0   		movl	-32(%ebp), %eax
 1175 0b30 890424   		movl	%eax, (%esp)
 1176 0b33 E84BF5FF 		call	_read_char
 1176      FF
 1177 0b38 8945F0   		movl	%eax, -16(%ebp)
 1178 0b3b 8B45F4   		movl	-12(%ebp), %eax
 1179 0b3e 8B048500 		movl	_Pos(,%eax,4), %eax
 1179      000000
 1180 0b45 8D5001   		leal	1(%eax), %edx
 1181 0b48 8B45F4   		movl	-12(%ebp), %eax
 1182 0b4b 89148500 		movl	%edx, _Pos(,%eax,4)
 1182      000000
 1183 0b52 8B45F4   		movl	-12(%ebp), %eax
 1184 0b55 8B048500 		movl	_Pos(,%eax,4), %eax
 1184      000000
 1185 0b5c 89442404 		movl	%eax, 4(%esp)
 1186 0b60 8B45E0   		movl	-32(%ebp), %eax
 1187 0b63 890424   		movl	%eax, (%esp)
 1188 0b66 E895F4FF 		call	_extract_number
 1188      FF
 1189 0b6b 8945D4   		movl	%eax, -44(%ebp)
 1190 0b6e 837DD400 		cmpl	$0, -44(%ebp)
 1191 0b72 0F88CE00 		js	L138
 1191      0000
 1192 0b78 837DD464 		cmpl	$100, -44(%ebp)
 1193 0b7c 7E09     		jle	L139
 1194 0b7e C745E402 		movl	$2, -28(%ebp)
 1194      000000
 1195 0b85 EB16     		jmp	L140
 1196              	L139:
 1197 0b87 837DD40A 		cmpl	$10, -44(%ebp)
 1198 0b8b 7E09     		jle	L141
 1199 0b8d C745E401 		movl	$1, -28(%ebp)
 1199      000000
 1200 0b94 EB07     		jmp	L140
 1201              	L141:
 1202 0b96 C745E400 		movl	$0, -28(%ebp)
 1202      000000
 1203              	L140:
 1204 0b9d 8B45F4   		movl	-12(%ebp), %eax
 1205 0ba0 8B148500 		movl	_Pos(,%eax,4), %edx
 1205      000000
 1206 0ba7 8B45E4   		movl	-28(%ebp), %eax
 1207 0baa 01C2     		addl	%eax, %edx
 1208 0bac 8B45F4   		movl	-12(%ebp), %eax
 1209 0baf 89148500 		movl	%edx, _Pos(,%eax,4)
 1209      000000
 1210 0bb6 8B45D4   		movl	-44(%ebp), %eax
 1211 0bb9 89442408 		movl	%eax, 8(%esp)
 1212 0bbd 8B45D8   		movl	-40(%ebp), %eax
 1213 0bc0 89442404 		movl	%eax, 4(%esp)
 1214 0bc4 8B4508   		movl	8(%ebp), %eax
 1215 0bc7 890424   		movl	%eax, (%esp)
 1216 0bca E88FF6FF 		call	_resolve_operand
 1216      FF
 1217 0bcf 8945EC   		movl	%eax, -20(%ebp)
 1218 0bd2 8B45EC   		movl	-20(%ebp), %eax
 1219 0bd5 89442404 		movl	%eax, 4(%esp)
 1220 0bd9 C7042443 		movl	$LC3, (%esp)
 1220      0A0000
 1221 0be0 E8000000 		call	_printf
 1221      00
 1222 0be5 837DE800 		cmpl	$0, -24(%ebp)
 1223 0be9 7414     		je	L142
 1224 0beb 837DEC00 		cmpl	$0, -20(%ebp)
 1225 0bef 0F94C0   		sete	%al
 1226 0bf2 0FB6C0   		movzbl	%al, %eax
 1227 0bf5 8945EC   		movl	%eax, -20(%ebp)
 1228 0bf8 C745E800 		movl	$0, -24(%ebp)
 1228      000000
 1229              	L142:
 1230 0bff 8B45F4   		movl	-12(%ebp), %eax
 1231 0c02 05000000 		addl	$_Val, %eax
 1231      00
 1232 0c07 0FB600   		movzbl	(%eax), %eax
 1233 0c0a 89C2     		movl	%eax, %edx
 1234 0c0c 8B45EC   		movl	-20(%ebp), %eax
 1235 0c0f 83C802   		orl	$2, %eax
 1236 0c12 21D0     		andl	%edx, %eax
 1237 0c14 8B55F4   		movl	-12(%ebp), %edx
 1238 0c17 81C20000 		addl	$_Val, %edx
 1238      0000
 1239 0c1d 8802     		movb	%al, (%edx)
 1240 0c1f 8B45F4   		movl	-12(%ebp), %eax
 1241 0c22 05000000 		addl	$_Val, %eax
 1241      00
 1242 0c27 0FB600   		movzbl	(%eax), %eax
 1243 0c2a 0FB6C0   		movzbl	%al, %eax
 1244 0c2d 89442408 		movl	%eax, 8(%esp)
 1245 0c31 8B45F4   		movl	-12(%ebp), %eax
 1246 0c34 89442404 		movl	%eax, 4(%esp)
 1247 0c38 C704244F 		movl	$LC4, (%esp)
 1247      0A0000
 1248 0c3f E8000000 		call	_printf
 1248      00
 1249 0c44 EB10     		jmp	L144
 1250              	L138:
 1251 0c46 C745ECFB 		movl	$-5, -20(%ebp)
 1251      FFFFFF
 1252 0c4d EB07     		jmp	L144
 1253              	L137:
 1254 0c4f C745ECFC 		movl	$-4, -20(%ebp)
 1254      FFFFFF
 1255              	L144:
 1256 0c56 8B45F4   		movl	-12(%ebp), %eax
 1257 0c59 8B048500 		movl	_Pos(,%eax,4), %eax
 1257      000000
 1258 0c60 8D5001   		leal	1(%eax), %edx
 1259 0c63 8B45F4   		movl	-12(%ebp), %eax
 1260 0c66 89148500 		movl	%edx, _Pos(,%eax,4)
 1260      000000
 1261              	L124:
 1262 0c6d 837DEC00 		cmpl	$0, -20(%ebp)
 1263 0c71 792C     		jns	L114
 1264 0c73 8B45F4   		movl	-12(%ebp), %eax
 1265 0c76 C7048500 		movl	$-1, _Pos(,%eax,4)
 1265      000000FF 
 1265      FFFFFF
 1266 0c81 8B45F4   		movl	-12(%ebp), %eax
 1267 0c84 C1E00A   		sall	$10, %eax
 1268 0c87 05000000 		addl	$_Lines, %eax
 1268      00
 1269 0c8c C6002E   		movb	$46, (%eax)
 1270 0c8f 8B45F4   		movl	-12(%ebp), %eax
 1271 0c92 05000000 		addl	$_Val, %eax
 1271      00
 1272 0c97 C60000   		movb	$0, (%eax)
 1273 0c9a 8B45EC   		movl	-20(%ebp), %eax
 1274 0c9d EB76     		jmp	L151
 1275              	L114:
 1276 0c9f 8B45F4   		movl	-12(%ebp), %eax
 1277 0ca2 8B048500 		movl	_Pos(,%eax,4), %eax
 1277      000000
 1278 0ca9 85C0     		testl	%eax, %eax
 1279 0cab 780A     		js	L146
 1280 0cad 837DF00F 		cmpl	$15, -16(%ebp)
 1281 0cb1 0F850EFB 		jne	L147
 1281      FFFF
 1282              	L146:
 1283 0cb7 8B45F4   		movl	-12(%ebp), %eax
 1284 0cba 05000000 		addl	$_Val, %eax
 1284      00
 1285 0cbf 0FB600   		movzbl	(%eax), %eax
 1286 0cc2 83E001   		andl	$1, %eax
 1287 0cc5 89C2     		movl	%eax, %edx
 1288 0cc7 8B45F4   		movl	-12(%ebp), %eax
 1289 0cca 05000000 		addl	$_Val, %eax
 1289      00
 1290 0ccf 8810     		movb	%dl, (%eax)
 1291 0cd1 8B45F4   		movl	-12(%ebp), %eax
 1292 0cd4 05000000 		addl	$_Val, %eax
 1292      00
 1293 0cd9 0FB600   		movzbl	(%eax), %eax
 1294 0cdc 84C0     		testb	%al, %al
 1295 0cde 7410     		je	L148
 1296 0ce0 8B45F4   		movl	-12(%ebp), %eax
 1297 0ce3 C1E00A   		sall	$10, %eax
 1298 0ce6 05000000 		addl	$_Lines, %eax
 1298      00
 1299 0ceb C60023   		movb	$35, (%eax)
 1300 0cee EB0E     		jmp	L149
 1301              	L148:
 1302 0cf0 8B45F4   		movl	-12(%ebp), %eax
 1303 0cf3 C1E00A   		sall	$10, %eax
 1304 0cf6 05000000 		addl	$_Lines, %eax
 1304      00
 1305 0cfb C60020   		movb	$32, (%eax)
 1306              	L149:
 1307 0cfe 8345F401 		addl	$1, -12(%ebp)
 1308              	L113:
 1309 0d02 A1000000 		movl	_Lineno, %eax
 1309      00
 1310 0d07 3945F4   		cmpl	%eax, -12(%ebp)
 1311 0d0a 0F8C81FA 		jl	L150
 1311      FFFF
 1312 0d10 B8010000 		movl	$1, %eax
 1312      00
 1313              	L151:
 1314 0d15 C9       		leave
 1315 0d16 C3       		ret
 1316              		.globl	_minmin
 1318              	_minmin:
 1319 0d17 55       		pushl	%ebp
 1320 0d18 89E5     		movl	%esp, %ebp
 1321 0d1a 83EC10   		subl	$16, %esp
 1322 0d1d C745F800 		movl	$1024, -8(%ebp)
 1322      040000
 1323 0d24 C745F4FF 		movl	$-1, -12(%ebp)
 1323      FFFFFF
 1324 0d2b 8B4510   		movl	16(%ebp), %eax
 1325 0d2e 83E801   		subl	$1, %eax
 1326 0d31 8945FC   		movl	%eax, -4(%ebp)
 1327 0d34 EB4A     		jmp	L153
 1328              	L155:
 1329 0d36 8B45FC   		movl	-4(%ebp), %eax
 1330 0d39 8D148500 		leal	0(,%eax,4), %edx
 1330      000000
 1331 0d40 8B4508   		movl	8(%ebp), %eax
 1332 0d43 01D0     		addl	%edx, %eax
 1333 0d45 8B00     		movl	(%eax), %eax
 1334 0d47 3B45F8   		cmpl	-8(%ebp), %eax
 1335 0d4a 7F30     		jg	L154
 1336 0d4c 8B45FC   		movl	-4(%ebp), %eax
 1337 0d4f 8D148500 		leal	0(,%eax,4), %edx
 1337      000000
 1338 0d56 8B4508   		movl	8(%ebp), %eax
 1339 0d59 01D0     		addl	%edx, %eax
 1340 0d5b 8B00     		movl	(%eax), %eax
 1341 0d5d 3B450C   		cmpl	12(%ebp), %eax
 1342 0d60 7C1A     		jl	L154
 1343 0d62 8B45FC   		movl	-4(%ebp), %eax
 1344 0d65 8D148500 		leal	0(,%eax,4), %edx
 1344      000000
 1345 0d6c 8B4508   		movl	8(%ebp), %eax
 1346 0d6f 01D0     		addl	%edx, %eax
 1347 0d71 8B00     		movl	(%eax), %eax
 1348 0d73 8945F8   		movl	%eax, -8(%ebp)
 1349 0d76 8B45FC   		movl	-4(%ebp), %eax
 1350 0d79 8945F4   		movl	%eax, -12(%ebp)
 1351              	L154:
 1352 0d7c 836DFC01 		subl	$1, -4(%ebp)
 1353              	L153:
 1354 0d80 837DFC00 		cmpl	$0, -4(%ebp)
 1355 0d84 79B0     		jns	L155
 1356 0d86 8B45F4   		movl	-12(%ebp), %eax
 1357 0d89 C9       		leave
 1358 0d8a C3       		ret
 1359              		.section .rdata,"dr"
 1360              		.align 4
 1361              	LC5:
 1362 0ae8 43686563 		.ascii "Checking line %d of %d (%d)@%d\0"
 1362      6B696E67 
 1362      206C696E 
 1362      65202564 
 1362      206F6620 
 1363              	LC6:
 1364 0b07 54525545 		.ascii "TRUE\0"
 1364      00
 1365              	LC7:
 1366 0b0c 46414C53 		.ascii "FALSE\0"
 1366      4500
 1367 0b12 0000     		.align 4
 1368              	LC8:
 1369 0b14 2D2D3E6E 		.ascii "-->new node %d of %d (%s)@%d \12\0"
 1369      6577206E 
 1369      6F646520 
 1369      2564206F 
 1369      66202564 
 1370              	LC9:
 1371 0b33 4F522028 		.ascii "OR (%s)  \12\0"
 1371      25732920 
 1371      200A00
 1372              	LC10:
 1373 0b3e 56616C75 		.ascii "Value Pushed\0"
 1373      65205075 
 1373      73686564 
 1373      00
 1374              		.text
 1375              		.globl	_LD_task
 1377              	_LD_task:
 1378 0d8b 55       		pushl	%ebp
 1379 0d8c 89E5     		movl	%esp, %ebp
 1380 0d8e 81EC980A 		subl	$2712, %esp
 1380      0000
 1381 0d94 C745E400 		movl	$0, -28(%ebp)
 1381      000000
 1382 0d9b C745E000 		movl	$0, -32(%ebp)
 1382      000000
 1383 0da2 C745DC00 		movl	$0, -36(%ebp)
 1383      000000
 1384 0da9 C745D800 		movl	$0, -40(%ebp)
 1384      000000
 1385 0db0 C745F000 		movl	$0, -16(%ebp)
 1385      000000
 1386 0db7 EB1D     		jmp	L158
 1387              	L159:
 1388 0db9 8B45F0   		movl	-16(%ebp), %eax
 1389 0dbc C7048500 		movl	$1, _Pos(,%eax,4)
 1389      00000001 
 1389      000000
 1390 0dc7 8B45F0   		movl	-16(%ebp), %eax
 1391 0dca 05000000 		addl	$_Val, %eax
 1391      00
 1392 0dcf C60003   		movb	$3, (%eax)
 1393 0dd2 8345F001 		addl	$1, -16(%ebp)
 1394              	L158:
 1395 0dd6 A1000000 		movl	_Lineno, %eax
 1395      00
 1396 0ddb 3945F0   		cmpl	%eax, -16(%ebp)
 1397 0dde 7CD9     		jl	L159
 1398 0de0 8B4508   		movl	8(%ebp), %eax
 1399 0de3 890424   		movl	%eax, (%esp)
 1400 0de6 E883F9FF 		call	_resolve_lines
 1400      FF
 1401 0deb 8945D4   		movl	%eax, -44(%ebp)
 1402 0dee 837DD400 		cmpl	$0, -44(%ebp)
 1403 0df2 7908     		jns	L160
 1404 0df4 8B45D4   		movl	-44(%ebp), %eax
 1405 0df7 E9140300 		jmp	L183
 1405      00
 1406              	L160:
 1407 0dfc A1000000 		movl	_Lineno, %eax
 1407      00
 1408 0e01 89442408 		movl	%eax, 8(%esp)
 1409 0e05 8B45E0   		movl	-32(%ebp), %eax
 1410 0e08 89442404 		movl	%eax, 4(%esp)
 1411 0e0c C7042400 		movl	$_Pos, (%esp)
 1411      000000
 1412 0e13 E8FFFEFF 		call	_minmin
 1412      FF
 1413 0e18 8945DC   		movl	%eax, -36(%ebp)
 1414 0e1b 837DDC00 		cmpl	$0, -36(%ebp)
 1415 0e1f 790A     		jns	L162
 1416 0e21 B8010000 		movl	$1, %eax
 1416      00
 1417 0e26 E9E50200 		jmp	L183
 1417      00
 1418              	L162:
 1419 0e2b 8B45DC   		movl	-36(%ebp), %eax
 1420 0e2e 8B048500 		movl	_Pos(,%eax,4), %eax
 1420      000000
 1421 0e35 8945E0   		movl	%eax, -32(%ebp)
 1422 0e38 8B45DC   		movl	-36(%ebp), %eax
 1423 0e3b 8945D0   		movl	%eax, -48(%ebp)
 1424 0e3e C745E401 		movl	$1, -28(%ebp)
 1424      000000
 1425 0e45 C745F000 		movl	$0, -16(%ebp)
 1425      000000
 1426 0e4c E9AC0200 		jmp	L163
 1426      00
 1427              	L182:
 1428 0e51 8B45F0   		movl	-16(%ebp), %eax
 1429 0e54 8B048500 		movl	_Pos(,%eax,4), %eax
 1429      000000
 1430 0e5b 85C0     		testl	%eax, %eax
 1431 0e5d 0F889602 		js	L164
 1431      0000
 1432 0e63 8B45F0   		movl	-16(%ebp), %eax
 1433 0e66 8B0C8500 		movl	_Pos(,%eax,4), %ecx
 1433      000000
 1434 0e6d 8B45F0   		movl	-16(%ebp), %eax
 1435 0e70 05000000 		addl	$_Val, %eax
 1435      00
 1436 0e75 0FB600   		movzbl	(%eax), %eax
 1437 0e78 0FB6D0   		movzbl	%al, %edx
 1438 0e7b A1000000 		movl	_Lineno, %eax
 1438      00
 1439 0e80 894C2414 		movl	%ecx, 20(%esp)
 1440 0e84 89542410 		movl	%edx, 16(%esp)
 1441 0e88 8944240C 		movl	%eax, 12(%esp)
 1442 0e8c 8B45F0   		movl	-16(%ebp), %eax
 1443 0e8f 89442408 		movl	%eax, 8(%esp)
 1444 0e93 C7442404 		movl	$LC5, 4(%esp)
 1444      E80A0000 
 1445 0e9b 8D85D0F5 		leal	-2608(%ebp), %eax
 1445      FFFF
 1446 0ea1 890424   		movl	%eax, (%esp)
 1447 0ea4 E8000000 		call	_sprintf
 1447      00
 1448 0ea9 8D85D0F5 		leal	-2608(%ebp), %eax
 1448      FFFF
 1449 0eaf 890424   		movl	%eax, (%esp)
 1450 0eb2 E8000000 		call	_printf
 1450      00
 1451 0eb7 8B45F0   		movl	-16(%ebp), %eax
 1452 0eba 05000000 		addl	$_Val, %eax
 1452      00
 1453 0ebf 0FB600   		movzbl	(%eax), %eax
 1454 0ec2 3C01     		cmpb	$1, %al
 1455 0ec4 0F872F02 		ja	L164
 1455      0000
 1456 0eca 8B45F0   		movl	-16(%ebp), %eax
 1457 0ecd 8945DC   		movl	%eax, -36(%ebp)
 1458 0ed0 8B45F0   		movl	-16(%ebp), %eax
 1459 0ed3 8B048500 		movl	_Pos(,%eax,4), %eax
 1459      000000
 1460 0eda 8945E0   		movl	%eax, -32(%ebp)
 1461 0edd 8B45F0   		movl	-16(%ebp), %eax
 1462 0ee0 05000000 		addl	$_Val, %eax
 1462      00
 1463 0ee5 0FB600   		movzbl	(%eax), %eax
 1464 0ee8 0FB6C0   		movzbl	%al, %eax
 1465 0eeb 83E001   		andl	$1, %eax
 1466 0eee 85C0     		testl	%eax, %eax
 1467 0ef0 7407     		je	L165
 1468 0ef2 B8070B00 		movl	$LC6, %eax
 1468      00
 1469 0ef7 EB05     		jmp	L166
 1470              	L165:
 1471 0ef9 B80C0B00 		movl	$LC7, %eax
 1471      00
 1472              	L166:
 1473 0efe 8B150000 		movl	_Lineno, %edx
 1473      0000
 1474 0f04 8B4DE0   		movl	-32(%ebp), %ecx
 1475 0f07 894C2414 		movl	%ecx, 20(%esp)
 1476 0f0b 89442410 		movl	%eax, 16(%esp)
 1477 0f0f 8954240C 		movl	%edx, 12(%esp)
 1478 0f13 8B45DC   		movl	-36(%ebp), %eax
 1479 0f16 89442408 		movl	%eax, 8(%esp)
 1480 0f1a C7442404 		movl	$LC8, 4(%esp)
 1480      140B0000 
 1481 0f22 8D85D0F5 		leal	-2608(%ebp), %eax
 1481      FFFF
 1482 0f28 890424   		movl	%eax, (%esp)
 1483 0f2b E8000000 		call	_sprintf
 1483      00
 1484 0f30 8D85D0F5 		leal	-2608(%ebp), %eax
 1484      FFFF
 1485 0f36 890424   		movl	%eax, (%esp)
 1486 0f39 E8000000 		call	_printf
 1486      00
 1487 0f3e 8B45DC   		movl	-36(%ebp), %eax
 1488 0f41 8945F4   		movl	%eax, -12(%ebp)
 1489 0f44 E9A20100 		jmp	L167
 1489      00
 1490              	L181:
 1491 0f49 8B45F4   		movl	-12(%ebp), %eax
 1492 0f4c C1E00A   		sall	$10, %eax
 1493 0f4f 89C2     		movl	%eax, %edx
 1494 0f51 8B45E0   		movl	-32(%ebp), %eax
 1495 0f54 01D0     		addl	%edx, %eax
 1496 0f56 05000000 		addl	$_Lines, %eax
 1496      00
 1497 0f5b 0FB600   		movzbl	(%eax), %eax
 1498 0f5e 3C7C     		cmpb	$124, %al
 1499 0f60 7419     		je	L168
 1500 0f62 8B45F4   		movl	-12(%ebp), %eax
 1501 0f65 C1E00A   		sall	$10, %eax
 1502 0f68 89C2     		movl	%eax, %edx
 1503 0f6a 8B45E0   		movl	-32(%ebp), %eax
 1504 0f6d 01D0     		addl	%edx, %eax
 1505 0f6f 05000000 		addl	$_Lines, %eax
 1505      00
 1506 0f74 0FB600   		movzbl	(%eax), %eax
 1507 0f77 3C2B     		cmpb	$43, %al
 1508 0f79 7511     		jne	L169
 1509              	L168:
 1510 0f7b A1000000 		movl	_Lineno, %eax
 1510      00
 1511 0f80 83E801   		subl	$1, %eax
 1512 0f83 3B45F4   		cmpl	-12(%ebp), %eax
 1513 0f86 0F8F1501 		jg	L170
 1513      0000
 1514              	L169:
 1515 0f8c 8B45DC   		movl	-36(%ebp), %eax
 1516 0f8f 05000000 		addl	$_Val, %eax
 1516      00
 1517 0f94 0FB600   		movzbl	(%eax), %eax
 1518 0f97 0FB6C0   		movzbl	%al, %eax
 1519 0f9a 83E001   		andl	$1, %eax
 1520 0f9d 8945E8   		movl	%eax, -24(%ebp)
 1521 0fa0 EB54     		jmp	L171
 1522              	L174:
 1523 0fa2 A1000000 		movl	_Stack, %eax
 1523      00
 1524 0fa7 0FB600   		movzbl	(%eax), %eax
 1525 0faa 84C0     		testb	%al, %al
 1526 0fac 7407     		je	L172
 1527 0fae B8070B00 		movl	$LC6, %eax
 1527      00
 1528 0fb3 EB05     		jmp	L173
 1529              	L172:
 1530 0fb5 B80C0B00 		movl	$LC7, %eax
 1530      00
 1531              	L173:
 1532 0fba 89442408 		movl	%eax, 8(%esp)
 1533 0fbe C7442404 		movl	$LC9, 4(%esp)
 1533      330B0000 
 1534 0fc6 8D85D0F5 		leal	-2608(%ebp), %eax
 1534      FFFF
 1535 0fcc 890424   		movl	%eax, (%esp)
 1536 0fcf E8000000 		call	_sprintf
 1536      00
 1537 0fd4 8D85D0F5 		leal	-2608(%ebp), %eax
 1537      FFFF
 1538 0fda 890424   		movl	%eax, (%esp)
 1539 0fdd E8000000 		call	_printf
 1539      00
 1540 0fe2 8B45E8   		movl	-24(%ebp), %eax
 1541 0fe5 0FB6C0   		movzbl	%al, %eax
 1542 0fe8 890424   		movl	%eax, (%esp)
 1543 0feb E8660200 		call	_pop
 1543      00
 1544 0ff0 0FB6C0   		movzbl	%al, %eax
 1545 0ff3 8945E8   		movl	%eax, -24(%ebp)
 1546              	L171:
 1547 0ff6 A1000000 		movl	_Stack, %eax
 1547      00
 1548 0ffb 85C0     		testl	%eax, %eax
 1549 0ffd 75A3     		jne	L174
 1550 0fff 8B45DC   		movl	-36(%ebp), %eax
 1551 1002 8945EC   		movl	%eax, -20(%ebp)
 1552 1005 EB45     		jmp	L175
 1553              	L178:
 1554 1007 8B45EC   		movl	-20(%ebp), %eax
 1555 100a C1E00A   		sall	$10, %eax
 1556 100d 89C2     		movl	%eax, %edx
 1557 100f 8B45E0   		movl	-32(%ebp), %eax
 1558 1012 01D0     		addl	%edx, %eax
 1559 1014 05000000 		addl	$_Lines, %eax
 1559      00
 1560 1019 0FB600   		movzbl	(%eax), %eax
 1561 101c 3C2B     		cmpb	$43, %al
 1562 101e 7528     		jne	L176
 1563 1020 8B45E8   		movl	-24(%ebp), %eax
 1564 1023 83C802   		orl	$2, %eax
 1565 1026 8B55EC   		movl	-20(%ebp), %edx
 1566 1029 81C20000 		addl	$_Val, %edx
 1566      0000
 1567 102f 8802     		movb	%al, (%edx)
 1568 1031 8B45EC   		movl	-20(%ebp), %eax
 1569 1034 8B048500 		movl	_Pos(,%eax,4), %eax
 1569      000000
 1570 103b 8D5001   		leal	1(%eax), %edx
 1571 103e 8B45EC   		movl	-20(%ebp), %eax
 1572 1041 89148500 		movl	%edx, _Pos(,%eax,4)
 1572      000000
 1573              	L176:
 1574 1048 8345EC01 		addl	$1, -20(%ebp)
 1575              	L175:
 1576 104c 8B45EC   		movl	-20(%ebp), %eax
 1577 104f 3B45F4   		cmpl	-12(%ebp), %eax
 1578 1052 7F32     		jg	L177
 1579 1054 8B45EC   		movl	-20(%ebp), %eax
 1580 1057 C1E00A   		sall	$10, %eax
 1581 105a 89C2     		movl	%eax, %edx
 1582 105c 8B45E0   		movl	-32(%ebp), %eax
 1583 105f 01D0     		addl	%edx, %eax
 1584 1061 05000000 		addl	$_Lines, %eax
 1584      00
 1585 1066 0FB600   		movzbl	(%eax), %eax
 1586 1069 3C7C     		cmpb	$124, %al
 1587 106b 749A     		je	L178
 1588 106d 8B45EC   		movl	-20(%ebp), %eax
 1589 1070 C1E00A   		sall	$10, %eax
 1590 1073 89C2     		movl	%eax, %edx
 1591 1075 8B45E0   		movl	-32(%ebp), %eax
 1592 1078 01D0     		addl	%edx, %eax
 1593 107a 05000000 		addl	$_Lines, %eax
 1593      00
 1594 107f 0FB600   		movzbl	(%eax), %eax
 1595 1082 3C2B     		cmpb	$43, %al
 1596 1084 7481     		je	L178
 1597              	L177:
 1598 1086 8B4508   		movl	8(%ebp), %eax
 1599 1089 890424   		movl	%eax, (%esp)
 1600 108c E8DDF6FF 		call	_resolve_lines
 1600      FF
 1601 1091 8945D4   		movl	%eax, -44(%ebp)
 1602 1094 837DD400 		cmpl	$0, -44(%ebp)
 1603 1098 7905     		jns	L179
 1604 109a 8B45D4   		movl	-44(%ebp), %eax
 1605 109d EB71     		jmp	L183
 1606              	L179:
 1607 109f EB58     		jmp	L164
 1608              	L170:
 1609 10a1 8B45F4   		movl	-12(%ebp), %eax
 1610 10a4 C1E00A   		sall	$10, %eax
 1611 10a7 89C2     		movl	%eax, %edx
 1612 10a9 8B45E0   		movl	-32(%ebp), %eax
 1613 10ac 01D0     		addl	%edx, %eax
 1614 10ae 05000000 		addl	$_Lines, %eax
 1614      00
 1615 10b3 0FB600   		movzbl	(%eax), %eax
 1616 10b6 3C2B     		cmpb	$43, %al
 1617 10b8 752D     		jne	L180
 1618 10ba C704243E 		movl	$LC10, (%esp)
 1618      0B0000
 1619 10c1 E8000000 		call	_puts
 1619      00
 1620 10c6 8B45F4   		movl	-12(%ebp), %eax
 1621 10c9 05000000 		addl	$_Val, %eax
 1621      00
 1622 10ce 0FB600   		movzbl	(%eax), %eax
 1623 10d1 0FB6C0   		movzbl	%al, %eax
 1624 10d4 83E001   		andl	$1, %eax
 1625 10d7 89442404 		movl	%eax, 4(%esp)
 1626 10db C7042448 		movl	$72, (%esp)
 1626      000000
 1627 10e2 E8250100 		call	_push
 1627      00
 1628              	L180:
 1629 10e7 8345F401 		addl	$1, -12(%ebp)
 1630              	L167:
 1631 10eb A1000000 		movl	_Lineno, %eax
 1631      00
 1632 10f0 3945F4   		cmpl	%eax, -12(%ebp)
 1633 10f3 0F8C50FE 		jl	L181
 1633      FFFF
 1634              	L164:
 1635 10f9 8345F001 		addl	$1, -16(%ebp)
 1636              	L163:
 1637 10fd A1000000 		movl	_Lineno, %eax
 1637      00
 1638 1102 3945F0   		cmpl	%eax, -16(%ebp)
 1639 1105 0F8C46FD 		jl	L182
 1639      FFFF
 1640 110b B8010000 		movl	$1, %eax
 1640      00
 1641              	L183:
 1642 1110 C9       		leave
 1643 1111 C3       		ret
 1644              		.globl	_IL_task
 1646              	_IL_task:
 1647 1112 55       		pushl	%ebp
 1648 1113 89E5     		movl	%esp, %ebp
 1649 1115 53       		pushl	%ebx
 1650 1116 81EC3404 		subl	$1076, %esp
 1650      0000
 1651 111c 89E0     		movl	%esp, %eax
 1652 111e 89C3     		movl	%eax, %ebx
 1653 1120 C745F001 		movl	$1, -16(%ebp)
 1653      000000
 1654 1127 A1000000 		movl	_Pagewidth, %eax
 1654      00
 1655 112c 8D50FF   		leal	-1(%eax), %edx
 1656 112f 8955EC   		movl	%edx, -20(%ebp)
 1657 1132 BA100000 		movl	$16, %edx
 1657      00
 1658 1137 83EA01   		subl	$1, %edx
 1659 113a 01D0     		addl	%edx, %eax
 1660 113c B9100000 		movl	$16, %ecx
 1660      00
 1661 1141 BA000000 		movl	$0, %edx
 1661      00
 1662 1146 F7F1     		divl	%ecx
 1663 1148 6BC010   		imull	$16, %eax, %eax
 1664 114b E8000000 		call	___chkstk_ms
 1664      00
 1665 1150 29C4     		subl	%eax, %esp
 1666 1152 8D44240C 		leal	12(%esp), %eax
 1667 1156 83C000   		addl	$0, %eax
 1668 1159 8945E8   		movl	%eax, -24(%ebp)
 1669 115c C745F400 		movl	$0, -12(%ebp)
 1669      000000
 1670 1163 E98C0000 		jmp	L185
 1670      00
 1671              	L189:
 1672 1168 8B45F4   		movl	-12(%ebp), %eax
 1673 116b C1E00A   		sall	$10, %eax
 1674 116e 8D900000 		leal	_Lines(%eax), %edx
 1674      0000
 1675 1174 8B45F4   		movl	-12(%ebp), %eax
 1676 1177 89442408 		movl	%eax, 8(%esp)
 1677 117b 8D85E3FB 		leal	-1053(%ebp), %eax
 1677      FFFF
 1678 1181 89442404 		movl	%eax, 4(%esp)
 1679 1185 891424   		movl	%edx, (%esp)
 1680 1188 E8390100 		call	_parse_il_line
 1680      00
 1681 118d 8945F0   		movl	%eax, -16(%ebp)
 1682 1190 837DF000 		cmpl	$0, -16(%ebp)
 1683 1194 7910     		jns	L186
 1684 1196 8B45F4   		movl	-12(%ebp), %eax
 1685 1199 C1E00A   		sall	$10, %eax
 1686 119c 05000000 		addl	$_Lines, %eax
 1686      00
 1687 11a1 C6002E   		movb	$46, (%eax)
 1688 11a4 EB5C     		jmp	L187
 1689              	L186:
 1690 11a6 8B45F4   		movl	-12(%ebp), %eax
 1691 11a9 8985DCFB 		movl	%eax, -1060(%ebp)
 1691      FFFF
 1692 11af 8D85DCFB 		leal	-1060(%ebp), %eax
 1692      FFFF
 1693 11b5 89442408 		movl	%eax, 8(%esp)
 1694 11b9 8D85E3FB 		leal	-1053(%ebp), %eax
 1694      FFFF
 1695 11bf 89442404 		movl	%eax, 4(%esp)
 1696 11c3 8B4508   		movl	8(%ebp), %eax
 1697 11c6 890424   		movl	%eax, (%esp)
 1698 11c9 E8980500 		call	_instruct
 1698      00
 1699 11ce 8945F0   		movl	%eax, -16(%ebp)
 1700 11d1 8B85DCFB 		movl	-1060(%ebp), %eax
 1700      FFFF
 1701 11d7 8945F4   		movl	%eax, -12(%ebp)
 1702 11da 837DF000 		cmpl	$0, -16(%ebp)
 1703 11de 7910     		jns	L188
 1704 11e0 8B45F4   		movl	-12(%ebp), %eax
 1705 11e3 C1E00A   		sall	$10, %eax
 1706 11e6 05000000 		addl	$_Lines, %eax
 1706      00
 1707 11eb C6002E   		movb	$46, (%eax)
 1708 11ee EB12     		jmp	L187
 1709              	L188:
 1710 11f0 8345F401 		addl	$1, -12(%ebp)
 1711              	L185:
 1712 11f4 A1000000 		movl	_Lineno, %eax
 1712      00
 1713 11f9 3945F4   		cmpl	%eax, -12(%ebp)
 1714 11fc 0F8C66FF 		jl	L189
 1714      FFFF
 1715              	L187:
 1716 1202 8B45F0   		movl	-16(%ebp), %eax
 1717 1205 89DC     		movl	%ebx, %esp
 1718 1207 8B5DFC   		movl	-4(%ebp), %ebx
 1719 120a C9       		leave
 1720 120b C3       		ret
 1721              		.globl	_push
 1723              	_push:
 1724 120c 55       		pushl	%ebp
 1725 120d 89E5     		movl	%esp, %ebp
 1726 120f 83EC28   		subl	$40, %esp
 1727 1212 8B5508   		movl	8(%ebp), %edx
 1728 1215 8B450C   		movl	12(%ebp), %eax
 1729 1218 8855E4   		movb	%dl, -28(%ebp)
 1730 121b 8845E0   		movb	%al, -32(%ebp)
 1731 121e C7042408 		movl	$8, (%esp)
 1731      000000
 1732 1225 E8000000 		call	_malloc
 1732      00
 1733 122a 8945F4   		movl	%eax, -12(%ebp)
 1734 122d 8B45F4   		movl	-12(%ebp), %eax
 1735 1230 0FB655E4 		movzbl	-28(%ebp), %edx
 1736 1234 8810     		movb	%dl, (%eax)
 1737 1236 8B45F4   		movl	-12(%ebp), %eax
 1738 1239 0FB655E0 		movzbl	-32(%ebp), %edx
 1739 123d 885001   		movb	%dl, 1(%eax)
 1740 1240 8B150000 		movl	_Stack, %edx
 1740      0000
 1741 1246 8B45F4   		movl	-12(%ebp), %eax
 1742 1249 895004   		movl	%edx, 4(%eax)
 1743 124c 8B45F4   		movl	-12(%ebp), %eax
 1744 124f A3000000 		movl	%eax, _Stack
 1744      00
 1745 1254 C9       		leave
 1746 1255 C3       		ret
 1747              		.globl	_pop
 1749              	_pop:
 1750 1256 55       		pushl	%ebp
 1751 1257 89E5     		movl	%esp, %ebp
 1752 1259 83EC28   		subl	$40, %esp
 1753 125c 8B4508   		movl	8(%ebp), %eax
 1754 125f 8845E4   		movb	%al, -28(%ebp)
 1755 1262 0FB645E4 		movzbl	-28(%ebp), %eax
 1756 1266 8845F7   		movb	%al, -9(%ebp)
 1757 1269 A1000000 		movl	_Stack, %eax
 1757      00
 1758 126e 85C0     		testl	%eax, %eax
 1759 1270 744E     		je	L193
 1760 1272 0FB64DE4 		movzbl	-28(%ebp), %ecx
 1761 1276 A1000000 		movl	_Stack, %eax
 1761      00
 1762 127b 0FB64001 		movzbl	1(%eax), %eax
 1763 127f 0FB6D0   		movzbl	%al, %edx
 1764 1282 A1000000 		movl	_Stack, %eax
 1764      00
 1765 1287 0FB600   		movzbl	(%eax), %eax
 1766 128a 0FB6C0   		movzbl	%al, %eax
 1767 128d 894C2408 		movl	%ecx, 8(%esp)
 1768 1291 89542404 		movl	%edx, 4(%esp)
 1769 1295 890424   		movl	%eax, (%esp)
 1770 1298 E8D80D00 		call	_operate
 1770      00
 1771 129d 8845F7   		movb	%al, -9(%ebp)
 1772 12a0 A1000000 		movl	_Stack, %eax
 1772      00
 1773 12a5 8945F0   		movl	%eax, -16(%ebp)
 1774 12a8 A1000000 		movl	_Stack, %eax
 1774      00
 1775 12ad 8B4004   		movl	4(%eax), %eax
 1776 12b0 A3000000 		movl	%eax, _Stack
 1776      00
 1777 12b5 8B45F0   		movl	-16(%ebp), %eax
 1778 12b8 890424   		movl	%eax, (%esp)
 1779 12bb E8000000 		call	_free
 1779      00
 1780              	L193:
 1781 12c0 0FB645F7 		movzbl	-9(%ebp), %eax
 1782 12c4 C9       		leave
 1783 12c5 C3       		ret
 1784              		.globl	_parse_il_line
 1786              	_parse_il_line:
 1787 12c6 55       		pushl	%ebp
 1788 12c7 89E5     		movl	%esp, %ebp
 1789 12c9 56       		pushl	%esi
 1790 12ca 53       		pushl	%ebx
 1791 12cb 81EC4008 		subl	$2112, %esp
 1791      0000
 1792 12d1 89E0     		movl	%esp, %eax
 1793 12d3 89C3     		movl	%eax, %ebx
 1794 12d5 A1000000 		movl	_Pagewidth, %eax
 1794      00
 1795 12da 8D50FF   		leal	-1(%eax), %edx
 1796 12dd 8955DC   		movl	%edx, -36(%ebp)
 1797 12e0 BA100000 		movl	$16, %edx
 1797      00
 1798 12e5 83EA01   		subl	$1, %edx
 1799 12e8 01D0     		addl	%edx, %eax
 1800 12ea BE100000 		movl	$16, %esi
 1800      00
 1801 12ef BA000000 		movl	$0, %edx
 1801      00
 1802 12f4 F7F6     		divl	%esi
 1803 12f6 6BC010   		imull	$16, %eax, %eax
 1804 12f9 E8000000 		call	___chkstk_ms
 1804      00
 1805 12fe 29C4     		subl	%eax, %esp
 1806 1300 8D44240C 		leal	12(%esp), %eax
 1807 1304 83C000   		addl	$0, %eax
 1808 1307 8945D8   		movl	%eax, -40(%ebp)
 1809 130a C745E400 		movl	$0, -28(%ebp)
 1809      000000
 1810 1311 C7442408 		movl	$1024, 8(%esp)
 1810      00040000 
 1811 1319 C7442404 		movl	$0, 4(%esp)
 1811      00000000 
 1812 1321 8D85D0F7 		leal	-2096(%ebp), %eax
 1812      FFFF
 1813 1327 890424   		movl	%eax, (%esp)
 1814 132a E8000000 		call	_memset
 1814      00
 1815 132f C7442408 		movl	$1024, 8(%esp)
 1815      00040000 
 1816 1337 C7442404 		movl	$0, 4(%esp)
 1816      00000000 
 1817 133f 8D85D4FB 		leal	-1068(%ebp), %eax
 1817      FFFF
 1818 1345 890424   		movl	%eax, (%esp)
 1819 1348 E8000000 		call	_memset
 1819      00
 1820 134d EB04     		jmp	L196
 1821              	L198:
 1822 134f 8345E401 		addl	$1, -28(%ebp)
 1823              	L196:
 1824 1353 8B45E4   		movl	-28(%ebp), %eax
 1825 1356 8B5508   		movl	8(%ebp), %edx
 1826 1359 01D0     		addl	%edx, %eax
 1827 135b 0FB600   		movzbl	(%eax), %eax
 1828 135e 84C0     		testb	%al, %al
 1829 1360 741E     		je	L197
 1830 1362 8B45E4   		movl	-28(%ebp), %eax
 1831 1365 8B5508   		movl	8(%ebp), %edx
 1832 1368 01D0     		addl	%edx, %eax
 1833 136a 0FB600   		movzbl	(%eax), %eax
 1834 136d 3C0A     		cmpb	$10, %al
 1835 136f 740F     		je	L197
 1836 1371 8B45E4   		movl	-28(%ebp), %eax
 1837 1374 8B5508   		movl	8(%ebp), %edx
 1838 1377 01D0     		addl	%edx, %eax
 1839 1379 0FB600   		movzbl	(%eax), %eax
 1840 137c 3C3B     		cmpb	$59, %al
 1841 137e 75CF     		jne	L198
 1842              	L197:
 1843 1380 8B45E4   		movl	-28(%ebp), %eax
 1844 1383 8945F4   		movl	%eax, -12(%ebp)
 1845 1386 EB0F     		jmp	L199
 1846              	L200:
 1847 1388 8B55F4   		movl	-12(%ebp), %edx
 1848 138b 8B4508   		movl	8(%ebp), %eax
 1849 138e 01D0     		addl	%edx, %eax
 1850 1390 C60000   		movb	$0, (%eax)
 1851 1393 8345F401 		addl	$1, -12(%ebp)
 1852              	L199:
 1853 1397 817DF4FF 		cmpl	$1023, -12(%ebp)
 1853      030000
 1854 139e 7EE8     		jle	L200
 1855 13a0 C745E400 		movl	$0, -28(%ebp)
 1855      000000
 1856 13a7 C7442404 		movl	$58, 4(%esp)
 1856      3A000000 
 1857 13af 8B4508   		movl	8(%ebp), %eax
 1858 13b2 890424   		movl	%eax, (%esp)
 1859 13b5 E8000000 		call	_strrchr
 1859      00
 1860 13ba 8945E8   		movl	%eax, -24(%ebp)
 1861 13bd 8B4508   		movl	8(%ebp), %eax
 1862 13c0 8945D4   		movl	%eax, -44(%ebp)
 1863 13c3 C745F400 		movl	$0, -12(%ebp)
 1863      000000
 1864 13ca 837DE800 		cmpl	$0, -24(%ebp)
 1865 13ce 7468     		je	L201
 1866 13d0 EB1E     		jmp	L202
 1867              	L203:
 1868 13d2 8B45F4   		movl	-12(%ebp), %eax
 1869 13d5 8D5001   		leal	1(%eax), %edx
 1870 13d8 8955F4   		movl	%edx, -12(%ebp)
 1871 13db 8B55F4   		movl	-12(%ebp), %edx
 1872 13de 8D4A01   		leal	1(%edx), %ecx
 1873 13e1 8B5508   		movl	8(%ebp), %edx
 1874 13e4 01CA     		addl	%ecx, %edx
 1875 13e6 0FB612   		movzbl	(%edx), %edx
 1876 13e9 889405D0 		movb	%dl, -2096(%ebp,%eax)
 1876      F7FFFF
 1877              	L202:
 1878 13f0 8B45F4   		movl	-12(%ebp), %eax
 1879 13f3 8D5001   		leal	1(%eax), %edx
 1880 13f6 8B4508   		movl	8(%ebp), %eax
 1881 13f9 01D0     		addl	%edx, %eax
 1882 13fb 3B45E8   		cmpl	-24(%ebp), %eax
 1883 13fe 75D2     		jne	L203
 1884 1400 8B4510   		movl	16(%ebp), %eax
 1885 1403 C1E00A   		sall	$10, %eax
 1886 1406 8D900000 		leal	_Labels(%eax), %edx
 1886      0000
 1887 140c 8D85D0F7 		leal	-2096(%ebp), %eax
 1887      FFFF
 1888 1412 89442404 		movl	%eax, 4(%esp)
 1889 1416 891424   		movl	%edx, (%esp)
 1890 1419 E8000000 		call	_strcpy
 1890      00
 1891 141e 8B45E8   		movl	-24(%ebp), %eax
 1892 1421 83C001   		addl	$1, %eax
 1893 1424 89442404 		movl	%eax, 4(%esp)
 1894 1428 8D85D4FB 		leal	-1068(%ebp), %eax
 1894      FFFF
 1895 142e 890424   		movl	%eax, (%esp)
 1896 1431 E8000000 		call	_strcpy
 1896      00
 1897 1436 EB18     		jmp	L204
 1898              	L201:
 1899 1438 8B4508   		movl	8(%ebp), %eax
 1900 143b 83C001   		addl	$1, %eax
 1901 143e 89442404 		movl	%eax, 4(%esp)
 1902 1442 8D85D4FB 		leal	-1068(%ebp), %eax
 1902      FFFF
 1903 1448 890424   		movl	%eax, (%esp)
 1904 144b E8000000 		call	_strcpy
 1904      00
 1905              	L204:
 1906 1450 C7442404 		movl	$40, 4(%esp)
 1906      28000000 
 1907 1458 8D85D4FB 		leal	-1068(%ebp), %eax
 1907      FFFF
 1908 145e 890424   		movl	%eax, (%esp)
 1909 1461 E8000000 		call	_strchr
 1909      00
 1910 1466 8945E8   		movl	%eax, -24(%ebp)
 1911 1469 837DE800 		cmpl	$0, -24(%ebp)
 1912 146d 7406     		je	L205
 1913 146f C645E302 		movb	$2, -29(%ebp)
 1914 1473 EB73     		jmp	L206
 1915              	L205:
 1916 1475 C7442404 		movl	$33, 4(%esp)
 1916      21000000 
 1917 147d 8D85D4FB 		leal	-1068(%ebp), %eax
 1917      FFFF
 1918 1483 890424   		movl	%eax, (%esp)
 1919 1486 E8000000 		call	_strchr
 1919      00
 1920 148b 8945E8   		movl	%eax, -24(%ebp)
 1921 148e 837DE800 		cmpl	$0, -24(%ebp)
 1922 1492 7406     		je	L207
 1923 1494 C645E301 		movb	$1, -29(%ebp)
 1924 1498 EB4E     		jmp	L206
 1925              	L207:
 1926 149a C7442404 		movl	$32, 4(%esp)
 1926      20000000 
 1927 14a2 8D85D4FB 		leal	-1068(%ebp), %eax
 1927      FFFF
 1928 14a8 890424   		movl	%eax, (%esp)
 1929 14ab E8000000 		call	_strchr
 1929      00
 1930 14b0 8945E8   		movl	%eax, -24(%ebp)
 1931 14b3 837DE800 		cmpl	$0, -24(%ebp)
 1932 14b7 7406     		je	L208
 1933 14b9 C645E303 		movb	$3, -29(%ebp)
 1934 14bd EB29     		jmp	L206
 1935              	L208:
 1936 14bf C7442404 		movl	$63, 4(%esp)
 1936      3F000000 
 1937 14c7 8D85D4FB 		leal	-1068(%ebp), %eax
 1937      FFFF
 1938 14cd 890424   		movl	%eax, (%esp)
 1939 14d0 E8000000 		call	_strchr
 1939      00
 1940 14d5 8945E8   		movl	%eax, -24(%ebp)
 1941 14d8 837DE800 		cmpl	$0, -24(%ebp)
 1942 14dc 7406     		je	L209
 1943 14de C645E304 		movb	$4, -29(%ebp)
 1944 14e2 EB04     		jmp	L206
 1945              	L209:
 1946 14e4 C645E300 		movb	$0, -29(%ebp)
 1947              	L206:
 1948 14e8 837DE800 		cmpl	$0, -24(%ebp)
 1949 14ec 7460     		je	L210
 1950 14ee 8D85D4FB 		leal	-1068(%ebp), %eax
 1950      FFFF
 1951 14f4 8945D4   		movl	%eax, -44(%ebp)
 1952 14f7 C745F400 		movl	$0, -12(%ebp)
 1952      000000
 1953 14fe C7442408 		movl	$4, 8(%esp)
 1953      04000000 
 1954 1506 C7442404 		movl	$0, 4(%esp)
 1954      00000000 
 1955 150e 8D85D0FB 		leal	-1072(%ebp), %eax
 1955      FFFF
 1956 1514 890424   		movl	%eax, (%esp)
 1957 1517 E8000000 		call	_memset
 1957      00
 1958 151c EB1B     		jmp	L211
 1959              	L213:
 1960 151e 8B45F4   		movl	-12(%ebp), %eax
 1961 1521 8D5001   		leal	1(%eax), %edx
 1962 1524 8955F4   		movl	%edx, -12(%ebp)
 1963 1527 8B4DF4   		movl	-12(%ebp), %ecx
 1964 152a 8B55D4   		movl	-44(%ebp), %edx
 1965 152d 01CA     		addl	%ecx, %edx
 1966 152f 0FB612   		movzbl	(%edx), %edx
 1967 1532 889405D0 		movb	%dl, -1072(%ebp,%eax)
 1967      FBFFFF
 1968              	L211:
 1969 1539 8B55F4   		movl	-12(%ebp), %edx
 1970 153c 8B45D4   		movl	-44(%ebp), %eax
 1971 153f 01D0     		addl	%edx, %eax
 1972 1541 3B45E8   		cmpl	-24(%ebp), %eax
 1973 1544 743F     		je	L212
 1974 1546 837DF403 		cmpl	$3, -12(%ebp)
 1975 154a 7ED2     		jle	L213
 1976 154c EB37     		jmp	L212
 1977              	L210:
 1978 154e 8D85D4FB 		leal	-1068(%ebp), %eax
 1978      FFFF
 1979 1554 890424   		movl	%eax, (%esp)
 1980 1557 E8000000 		call	_strlen
 1980      00
 1981 155c 83F803   		cmpl	$3, %eax
 1982 155f 771A     		ja	L214
 1983 1561 8D85D4FB 		leal	-1068(%ebp), %eax
 1983      FFFF
 1984 1567 89442404 		movl	%eax, 4(%esp)
 1985 156b 8D85D0FB 		leal	-1072(%ebp), %eax
 1985      FFFF
 1986 1571 890424   		movl	%eax, (%esp)
 1987 1574 E8000000 		call	_strcpy
 1987      00
 1988 1579 EB0A     		jmp	L212
 1989              	L214:
 1990 157b B8F9FFFF 		movl	$-7, %eax
 1990      FF
 1991 1580 E9D80100 		jmp	L215
 1991      00
 1992              	L212:
 1993 1585 C645E116 		movb	$22, -31(%ebp)
 1994 1589 C745F400 		movl	$0, -12(%ebp)
 1994      000000
 1995 1590 EB2B     		jmp	L216
 1996              	L218:
 1997 1592 8B45F4   		movl	-12(%ebp), %eax
 1998 1595 C1E002   		sall	$2, %eax
 1999 1598 05000800 		addl	$_il_commands, %eax
 1999      00
 2000 159d 89442404 		movl	%eax, 4(%esp)
 2001 15a1 8D85D0FB 		leal	-1072(%ebp), %eax
 2001      FFFF
 2002 15a7 890424   		movl	%eax, (%esp)
 2003 15aa E8000000 		call	_strcmp
 2003      00
 2004 15af 85C0     		testl	%eax, %eax
 2005 15b1 7506     		jne	L217
 2006 15b3 8B45F4   		movl	-12(%ebp), %eax
 2007 15b6 8845E1   		movb	%al, -31(%ebp)
 2008              	L217:
 2009 15b9 8345F401 		addl	$1, -12(%ebp)
 2010              	L216:
 2011 15bd 837DF415 		cmpl	$21, -12(%ebp)
 2012 15c1 7ECF     		jle	L218
 2013 15c3 807DE116 		cmpb	$22, -31(%ebp)
 2014 15c7 750A     		jne	L219
 2015 15c9 B8F9FFFF 		movl	$-7, %eax
 2015      FF
 2016 15ce E98A0100 		jmp	L215
 2016      00
 2017              	L219:
 2018 15d3 807DE104 		cmpb	$4, -31(%ebp)
 2019 15d7 0F86F300 		jbe	L220
 2019      0000
 2020 15dd C7442404 		movl	$37, 4(%esp)
 2020      25000000 
 2021 15e5 8D85D4FB 		leal	-1068(%ebp), %eax
 2021      FFFF
 2022 15eb 890424   		movl	%eax, (%esp)
 2023 15ee E8000000 		call	_strchr
 2023      00
 2024 15f3 8945E8   		movl	%eax, -24(%ebp)
 2025 15f6 837DE800 		cmpl	$0, -24(%ebp)
 2026 15fa 750A     		jne	L221
 2027 15fc B8FEFFFF 		movl	$-2, %eax
 2027      FF
 2028 1601 E9570100 		jmp	L215
 2028      00
 2029              	L221:
 2030 1606 C645E200 		movb	$0, -30(%ebp)
 2031 160a 8B45E8   		movl	-24(%ebp), %eax
 2032 160d 83C001   		addl	$1, %eax
 2033 1610 0FB600   		movzbl	(%eax), %eax
 2034 1613 0FBEC0   		movsbl	%al, %eax
 2035 1616 890424   		movl	%eax, (%esp)
 2036 1619 E8000000 		call	_isalpha
 2036      00
 2037 161e 85C0     		testl	%eax, %eax
 2038 1620 7434     		je	L222
 2039 1622 C7442404 		movl	$1, 4(%esp)
 2039      01000000 
 2040 162a 8B45E8   		movl	-24(%ebp), %eax
 2041 162d 890424   		movl	%eax, (%esp)
 2042 1630 E84EEAFF 		call	_read_char
 2042      FF
 2043 1635 8845E2   		movb	%al, -30(%ebp)
 2044 1638 C7442404 		movl	$2, 4(%esp)
 2044      02000000 
 2045 1640 8B45E8   		movl	-24(%ebp), %eax
 2046 1643 890424   		movl	%eax, (%esp)
 2047 1646 E8B5E9FF 		call	_extract_number
 2047      FF
 2048 164b 8945F0   		movl	%eax, -16(%ebp)
 2049 164e 837DF000 		cmpl	$0, -16(%ebp)
 2050 1652 7916     		jns	L224
 2051 1654 EB0A     		jmp	L231
 2052              	L222:
 2053 1656 B8FCFFFF 		movl	$-4, %eax
 2053      FF
 2054 165b E9FD0000 		jmp	L215
 2054      00
 2055              	L231:
 2056 1660 B8FBFFFF 		movl	$-5, %eax
 2056      FF
 2057 1665 E9F30000 		jmp	L215
 2057      00
 2058              	L224:
 2059 166a C7442404 		movl	$47, 4(%esp)
 2059      2F000000 
 2060 1672 8B45E8   		movl	-24(%ebp), %eax
 2061 1675 890424   		movl	%eax, (%esp)
 2062 1678 E8000000 		call	_strchr
 2062      00
 2063 167d 8945D4   		movl	%eax, -44(%ebp)
 2064 1680 C745EC40 		movl	$64, -20(%ebp)
 2064      000000
 2065 1687 837DD400 		cmpl	$0, -44(%ebp)
 2066 168b 0F848000 		je	L228
 2066      0000
 2067 1691 8B45D4   		movl	-44(%ebp), %eax
 2068 1694 83C001   		addl	$1, %eax
 2069 1697 0FB600   		movzbl	(%eax), %eax
 2070 169a 0FBEC0   		movsbl	%al, %eax
 2071 169d 83E830   		subl	$48, %eax
 2072 16a0 83F809   		cmpl	$9, %eax
 2073 16a3 770D     		ja	L226
 2074 16a5 8B45D4   		movl	-44(%ebp), %eax
 2075 16a8 83C001   		addl	$1, %eax
 2076 16ab 0FB600   		movzbl	(%eax), %eax
 2077 16ae 3C37     		cmpb	$55, %al
 2078 16b0 7E0A     		jle	L227
 2079              	L226:
 2080 16b2 B8FBFFFF 		movl	$-5, %eax
 2080      FF
 2081 16b7 E9A10000 		jmp	L215
 2081      00
 2082              	L227:
 2083 16bc 8B45D4   		movl	-44(%ebp), %eax
 2084 16bf 83C001   		addl	$1, %eax
 2085 16c2 0FB600   		movzbl	(%eax), %eax
 2086 16c5 0FBEC0   		movsbl	%al, %eax
 2087 16c8 83E830   		subl	$48, %eax
 2088 16cb 8945EC   		movl	%eax, -20(%ebp)
 2089 16ce EB41     		jmp	L228
 2090              	L220:
 2091 16d0 807DE103 		cmpb	$3, -31(%ebp)
 2092 16d4 753B     		jne	L228
 2093 16d6 C7442404 		movl	$32, 4(%esp)
 2093      20000000 
 2094 16de 8D85D4FB 		leal	-1068(%ebp), %eax
 2094      FFFF
 2095 16e4 890424   		movl	%eax, (%esp)
 2096 16e7 E8000000 		call	_strchr
 2096      00
 2097 16ec 8945E8   		movl	%eax, -24(%ebp)
 2098 16ef 837DE800 		cmpl	$0, -24(%ebp)
 2099 16f3 7507     		jne	L229
 2100 16f5 B8FCFFFF 		movl	$-4, %eax
 2100      FF
 2101 16fa EB61     		jmp	L215
 2102              	L229:
 2103 16fc 8B45E8   		movl	-24(%ebp), %eax
 2104 16ff 8D5001   		leal	1(%eax), %edx
 2105 1702 8B450C   		movl	12(%ebp), %eax
 2106 1705 89542404 		movl	%edx, 4(%esp)
 2107 1709 890424   		movl	%eax, (%esp)
 2108 170c E8000000 		call	_strcpy
 2108      00
 2109              	L228:
 2110 1711 8B450C   		movl	12(%ebp), %eax
 2111 1714 0FB655E1 		movzbl	-31(%ebp), %edx
 2112 1718 88900004 		movb	%dl, 1024(%eax)
 2112      0000
 2113 171e 8B450C   		movl	12(%ebp), %eax
 2114 1721 0FB655E3 		movzbl	-29(%ebp), %edx
 2115 1725 88900204 		movb	%dl, 1026(%eax)
 2115      0000
 2116 172b 8B450C   		movl	12(%ebp), %eax
 2117 172e 0FB655E2 		movzbl	-30(%ebp), %edx
 2118 1732 88900104 		movb	%dl, 1025(%eax)
 2118      0000
 2119 1738 8B45F0   		movl	-16(%ebp), %eax
 2120 173b 89C2     		movl	%eax, %edx
 2121 173d 8B450C   		movl	12(%ebp), %eax
 2122 1740 88900304 		movb	%dl, 1027(%eax)
 2122      0000
 2123 1746 8B45EC   		movl	-20(%ebp), %eax
 2124 1749 89C2     		movl	%eax, %edx
 2125 174b 8B450C   		movl	12(%ebp), %eax
 2126 174e 88900404 		movb	%dl, 1028(%eax)
 2126      0000
 2127 1754 8B4510   		movl	16(%ebp), %eax
 2128 1757 8D5001   		leal	1(%eax), %edx
 2129 175a 895510   		movl	%edx, 16(%ebp)
 2130              	L215:
 2131 175d 89DC     		movl	%ebx, %esp
 2132 175f 8D65F8   		leal	-8(%ebp), %esp
 2133 1762 5B       		popl	%ebx
 2134 1763 5E       		popl	%esi
 2135 1764 5D       		popl	%ebp
 2136 1765 C3       		ret
 2137              		.globl	_instruct
 2139              	_instruct:
 2140 1766 55       		pushl	%ebp
 2141 1767 89E5     		movl	%esp, %ebp
 2142 1769 56       		pushl	%esi
 2143 176a 53       		pushl	%ebx
 2144 176b 83EC20   		subl	$32, %esp
 2145 176e 89E0     		movl	%esp, %eax
 2146 1770 89C3     		movl	%eax, %ebx
 2147 1772 C645F700 		movb	$0, -9(%ebp)
 2148 1776 A1000000 		movl	_Pagewidth, %eax
 2148      00
 2149 177b 8D50FF   		leal	-1(%eax), %edx
 2150 177e 8955EC   		movl	%edx, -20(%ebp)
 2151 1781 BA100000 		movl	$16, %edx
 2151      00
 2152 1786 83EA01   		subl	$1, %edx
 2153 1789 01D0     		addl	%edx, %eax
 2154 178b BE100000 		movl	$16, %esi
 2154      00
 2155 1790 BA000000 		movl	$0, %edx
 2155      00
 2156 1795 F7F6     		divl	%esi
 2157 1797 6BC010   		imull	$16, %eax, %eax
 2158 179a E8000000 		call	___chkstk_ms
 2158      00
 2159 179f 29C4     		subl	%eax, %esp
 2160 17a1 8D442410 		leal	16(%esp), %eax
 2161 17a5 83C000   		addl	$0, %eax
 2162 17a8 8945E8   		movl	%eax, -24(%ebp)
 2163 17ab 8B450C   		movl	12(%ebp), %eax
 2164 17ae 0FB68000 		movzbl	1024(%eax), %eax
 2164      040000
 2165 17b5 3C09     		cmpb	$9, %al
 2166 17b7 7634     		jbe	L233
 2167 17b9 8B450C   		movl	12(%ebp), %eax
 2168 17bc 0FB68000 		movzbl	1024(%eax), %eax
 2168      040000
 2169 17c3 3C0B     		cmpb	$11, %al
 2170 17c5 7726     		ja	L233
 2171 17c7 8B450C   		movl	12(%ebp), %eax
 2172 17ca 0FB68002 		movzbl	1026(%eax), %eax
 2172      040000
 2173 17d1 3C01     		cmpb	$1, %al
 2174 17d3 7418     		je	L233
 2175 17d5 8B450C   		movl	12(%ebp), %eax
 2176 17d8 0FB68002 		movzbl	1026(%eax), %eax
 2176      040000
 2177 17df 3C03     		cmpb	$3, %al
 2178 17e1 740A     		je	L233
 2179 17e3 B8F9FFFF 		movl	$-7, %eax
 2179      FF
 2180 17e8 E97F0800 		jmp	L234
 2180      00
 2181              	L233:
 2182 17ed 8B450C   		movl	12(%ebp), %eax
 2183 17f0 0FB68000 		movzbl	1024(%eax), %eax
 2183      040000
 2184 17f7 3C0B     		cmpb	$11, %al
 2185 17f9 7626     		jbe	L235
 2186 17fb 8B450C   		movl	12(%ebp), %eax
 2187 17fe 0FB68002 		movzbl	1026(%eax), %eax
 2187      040000
 2188 1805 3C02     		cmpb	$2, %al
 2189 1807 7418     		je	L235
 2190 1809 8B450C   		movl	12(%ebp), %eax
 2191 180c 0FB68002 		movzbl	1026(%eax), %eax
 2191      040000
 2192 1813 3C03     		cmpb	$3, %al
 2193 1815 740A     		je	L235
 2194 1817 B8F9FFFF 		movl	$-7, %eax
 2194      FF
 2195 181c E94B0800 		jmp	L234
 2195      00
 2196              	L235:
 2197 1821 8B450C   		movl	12(%ebp), %eax
 2198 1824 0FB68000 		movzbl	1024(%eax), %eax
 2198      040000
 2199 182b 3C04     		cmpb	$4, %al
 2200 182d 7626     		jbe	L236
 2201 182f 8B450C   		movl	12(%ebp), %eax
 2202 1832 0FB68000 		movzbl	1024(%eax), %eax
 2202      040000
 2203 1839 3C06     		cmpb	$6, %al
 2204 183b 7718     		ja	L236
 2205 183d 8B450C   		movl	12(%ebp), %eax
 2206 1840 0FB68002 		movzbl	1026(%eax), %eax
 2206      040000
 2207 1847 3C03     		cmpb	$3, %al
 2208 1849 740A     		je	L236
 2209 184b B8F9FFFF 		movl	$-7, %eax
 2209      FF
 2210 1850 E9170800 		jmp	L234
 2210      00
 2211              	L236:
 2212 1855 8B450C   		movl	12(%ebp), %eax
 2213 1858 0FB68004 		movzbl	1028(%eax), %eax
 2213      040000
 2214 185f 3C07     		cmpb	$7, %al
 2215 1861 7704     		ja	L237
 2216 1863 C645F701 		movb	$1, -9(%ebp)
 2217              	L237:
 2218 1867 8B450C   		movl	12(%ebp), %eax
 2219 186a 0FB68000 		movzbl	1024(%eax), %eax
 2219      040000
 2220 1871 3C05     		cmpb	$5, %al
 2221 1873 741C     		je	L238
 2222 1875 8B450C   		movl	12(%ebp), %eax
 2223 1878 0FB68000 		movzbl	1024(%eax), %eax
 2223      040000
 2224 187f 3C06     		cmpb	$6, %al
 2225 1881 740E     		je	L238
 2226 1883 8B450C   		movl	12(%ebp), %eax
 2227 1886 0FB68000 		movzbl	1024(%eax), %eax
 2227      040000
 2228 188d 3C0B     		cmpb	$11, %al
 2229 188f 7568     		jne	L239
 2230              	L238:
 2231 1891 8B450C   		movl	12(%ebp), %eax
 2232 1894 0FB68001 		movzbl	1025(%eax), %eax
 2232      040000
 2233 189b 3C1A     		cmpb	$26, %al
 2234 189d 7758     		ja	L240
 2235 189f 8B450C   		movl	12(%ebp), %eax
 2236 18a2 0FB68001 		movzbl	1025(%eax), %eax
 2236      040000
 2237 18a9 3C1A     		cmpb	$26, %al
 2238 18ab 750C     		jne	L241
 2239 18ad 8B450C   		movl	12(%ebp), %eax
 2240 18b0 C6800104 		movb	$27, 1025(%eax)
 2240      00001B
 2241 18b7 EB3E     		jmp	L240
 2242              	L241:
 2243 18b9 8B450C   		movl	12(%ebp), %eax
 2244 18bc 0FB68001 		movzbl	1025(%eax), %eax
 2244      040000
 2245 18c3 3C15     		cmpb	$21, %al
 2246 18c5 750C     		jne	L242
 2247 18c7 8B450C   		movl	12(%ebp), %eax
 2248 18ca C6800104 		movb	$29, 1025(%eax)
 2248      00001D
 2249 18d1 EB24     		jmp	L240
 2250              	L242:
 2251 18d3 8B450C   		movl	12(%ebp), %eax
 2252 18d6 0FB68001 		movzbl	1025(%eax), %eax
 2252      040000
 2253 18dd 3C19     		cmpb	$25, %al
 2254 18df 750C     		jne	L243
 2255 18e1 8B450C   		movl	12(%ebp), %eax
 2256 18e4 C6800104 		movb	$28, 1025(%eax)
 2256      00001C
 2257 18eb EB0A     		jmp	L240
 2258              	L243:
 2259 18ed B8FCFFFF 		movl	$-4, %eax
 2259      FF
 2260 18f2 E9750700 		jmp	L234
 2260      00
 2261              	L240:
 2262 18f7 EB34     		jmp	L244
 2263              	L239:
 2264 18f9 8B450C   		movl	12(%ebp), %eax
 2265 18fc 0FB68000 		movzbl	1024(%eax), %eax
 2265      040000
 2266 1903 3C04     		cmpb	$4, %al
 2267 1905 7626     		jbe	L244
 2268 1907 8B450C   		movl	12(%ebp), %eax
 2269 190a 0FB68001 		movzbl	1025(%eax), %eax
 2269      040000
 2270 1911 3C12     		cmpb	$18, %al
 2271 1913 760E     		jbe	L245
 2272 1915 8B450C   		movl	12(%ebp), %eax
 2273 1918 0FB68001 		movzbl	1025(%eax), %eax
 2273      040000
 2274 191f 3C1B     		cmpb	$27, %al
 2275 1921 760A     		jbe	L244
 2276              	L245:
 2277 1923 B8FCFFFF 		movl	$-4, %eax
 2277      FF
 2278 1928 E93F0700 		jmp	L234
 2278      00
 2279              	L244:
 2280 192d 8B450C   		movl	12(%ebp), %eax
 2281 1930 0FB68000 		movzbl	1024(%eax), %eax
 2281      040000
 2282 1937 0FB6C0   		movzbl	%al, %eax
 2283 193a 83F80B   		cmpl	$11, %eax
 2284 193d 0F875F06 		ja	L246
 2284      0000
 2285 1943 8B04854C 		movl	L248(,%eax,4), %eax
 2285      0B0000
 2286 194a FFE0     		jmp	*%eax
 2287              		.section .rdata,"dr"
 2288 0b4b 00       		.align 4
 2289              	L248:
 2290 0b4c A21F0000 		.long	L246
 2291 0b50 4C190000 		.long	L247
 2292 0b54 61200000 		.long	L312
 2293 0b58 68190000 		.long	L250
 2294 0b5c 61200000 		.long	L312
 2295 0b60 C8190000 		.long	L252
 2296 0b64 8B1A0000 		.long	L253
 2297 0b68 A21F0000 		.long	L246
 2298 0b6c A21F0000 		.long	L246
 2299 0b70 A21F0000 		.long	L246
 2300 0b74 4E1B0000 		.long	L254
 2301 0b78 0B1E0000 		.long	L255
 2302              		.text
 2303              	L247:
 2304 194c 0FB60500 		movzbl	_acc.3339, %eax
 2304      000000
 2305 1953 0FB6C0   		movzbl	%al, %eax
 2306 1956 890424   		movl	%eax, (%esp)
 2307 1959 E8F8F8FF 		call	_pop
 2307      FF
 2308 195e A2000000 		movb	%al, _acc.3339
 2308      00
 2309 1963 E9FA0600 		jmp	L256
 2309      00
 2310              	L250:
 2311 1968 C745F000 		movl	$0, -16(%ebp)
 2311      000000
 2312 196f EB48     		jmp	L257
 2313              	L259:
 2314 1971 8B45F0   		movl	-16(%ebp), %eax
 2315 1974 C1E00A   		sall	$10, %eax
 2316 1977 05000000 		addl	$_Labels, %eax
 2316      00
 2317 197c 0FB600   		movzbl	(%eax), %eax
 2318 197f 0FBEC0   		movsbl	%al, %eax
 2319 1982 890424   		movl	%eax, (%esp)
 2320 1985 E8000000 		call	_isalnum
 2320      00
 2321 198a 85C0     		testl	%eax, %eax
 2322 198c 7427     		je	L258
 2323 198e 8B45F0   		movl	-16(%ebp), %eax
 2324 1991 C1E00A   		sall	$10, %eax
 2325 1994 8D900000 		leal	_Labels(%eax), %edx
 2325      0000
 2326 199a 8B450C   		movl	12(%ebp), %eax
 2327 199d 89542404 		movl	%edx, 4(%esp)
 2328 19a1 890424   		movl	%eax, (%esp)
 2329 19a4 E8000000 		call	_strcmp
 2329      00
 2330 19a9 85C0     		testl	%eax, %eax
 2331 19ab 7508     		jne	L258
 2332 19ad 8B4510   		movl	16(%ebp), %eax
 2333 19b0 8B55F0   		movl	-16(%ebp), %edx
 2334 19b3 8910     		movl	%edx, (%eax)
 2335              	L258:
 2336 19b5 8345F001 		addl	$1, -16(%ebp)
 2337              	L257:
 2338 19b9 A1000000 		movl	_Lineno, %eax
 2338      00
 2339 19be 3945F0   		cmpl	%eax, -16(%ebp)
 2340 19c1 7CAE     		jl	L259
 2341 19c3 E99A0600 		jmp	L256
 2341      00
 2342              	L252:
 2343 19c8 8B450C   		movl	12(%ebp), %eax
 2344 19cb 0FB68001 		movzbl	1025(%eax), %eax
 2344      040000
 2345 19d2 0FB6C0   		movzbl	%al, %eax
 2346 19d5 83F81C   		cmpl	$28, %eax
 2347 19d8 7456     		je	L261
 2348 19da 83F81D   		cmpl	$29, %eax
 2349 19dd 7477     		je	L262
 2350 19df 83F81B   		cmpl	$27, %eax
 2351 19e2 0F859400 		jne	L310
 2351      0000
 2352 19e8 807DF700 		cmpb	$0, -9(%ebp)
 2353 19ec 750A     		jne	L264
 2354 19ee B8FCFFFF 		movl	$-4, %eax
 2354      FF
 2355 19f3 E9740600 		jmp	L234
 2355      00
 2356              	L264:
 2357 19f8 8B450C   		movl	12(%ebp), %eax
 2358 19fb 0FB68003 		movzbl	1027(%eax), %eax
 2358      040000
 2359 1a02 C0E803   		shrb	$3, %al
 2360 1a05 0FB6D0   		movzbl	%al, %edx
 2361 1a08 8B450C   		movl	12(%ebp), %eax
 2362 1a0b 0FB68004 		movzbl	1028(%eax), %eax
 2362      040000
 2363 1a12 0FB6C0   		movzbl	%al, %eax
 2364 1a15 01D0     		addl	%edx, %eax
 2365 1a17 89442408 		movl	%eax, 8(%esp)
 2366 1a1b C7442404 		movl	$1, 4(%esp)
 2366      01000000 
 2367 1a23 8B4508   		movl	8(%ebp), %eax
 2368 1a26 890424   		movl	%eax, (%esp)
 2369 1a29 E8000000 		call	_set
 2369      00
 2370 1a2e EB56     		jmp	L265
 2371              	L261:
 2372 1a30 8B450C   		movl	12(%ebp), %eax
 2373 1a33 0FB68003 		movzbl	1027(%eax), %eax
 2373      040000
 2374 1a3a 0FB6C0   		movzbl	%al, %eax
 2375 1a3d 89442408 		movl	%eax, 8(%esp)
 2376 1a41 C7442404 		movl	$3, 4(%esp)
 2376      03000000 
 2377 1a49 8B4508   		movl	8(%ebp), %eax
 2378 1a4c 890424   		movl	%eax, (%esp)
 2379 1a4f E8000000 		call	_set
 2379      00
 2380 1a54 EB30     		jmp	L265
 2381              	L262:
 2382 1a56 8B450C   		movl	12(%ebp), %eax
 2383 1a59 0FB68003 		movzbl	1027(%eax), %eax
 2383      040000
 2384 1a60 0FB6C0   		movzbl	%al, %eax
 2385 1a63 89442408 		movl	%eax, 8(%esp)
 2386 1a67 C7442404 		movl	$2, 4(%esp)
 2386      02000000 
 2387 1a6f 8B4508   		movl	8(%ebp), %eax
 2388 1a72 890424   		movl	%eax, (%esp)
 2389 1a75 E8000000 		call	_set
 2389      00
 2390 1a7a EB0A     		jmp	L265
 2391              	L310:
 2392 1a7c B8FCFFFF 		movl	$-4, %eax
 2392      FF
 2393 1a81 E9E60500 		jmp	L234
 2393      00
 2394              	L265:
 2395 1a86 E9D70500 		jmp	L256
 2395      00
 2396              	L253:
 2397 1a8b 8B450C   		movl	12(%ebp), %eax
 2398 1a8e 0FB68001 		movzbl	1025(%eax), %eax
 2398      040000
 2399 1a95 0FB6C0   		movzbl	%al, %eax
 2400 1a98 83F81C   		cmpl	$28, %eax
 2401 1a9b 7456     		je	L267
 2402 1a9d 83F81D   		cmpl	$29, %eax
 2403 1aa0 7477     		je	L268
 2404 1aa2 83F81B   		cmpl	$27, %eax
 2405 1aa5 0F859400 		jne	L311
 2405      0000
 2406 1aab 807DF700 		cmpb	$0, -9(%ebp)
 2407 1aaf 750A     		jne	L270
 2408 1ab1 B8FCFFFF 		movl	$-4, %eax
 2408      FF
 2409 1ab6 E9B10500 		jmp	L234
 2409      00
 2410              	L270:
 2411 1abb 8B450C   		movl	12(%ebp), %eax
 2412 1abe 0FB68003 		movzbl	1027(%eax), %eax
 2412      040000
 2413 1ac5 C0E803   		shrb	$3, %al
 2414 1ac8 0FB6D0   		movzbl	%al, %edx
 2415 1acb 8B450C   		movl	12(%ebp), %eax
 2416 1ace 0FB68004 		movzbl	1028(%eax), %eax
 2416      040000
 2417 1ad5 0FB6C0   		movzbl	%al, %eax
 2418 1ad8 01D0     		addl	%edx, %eax
 2419 1ada 89442408 		movl	%eax, 8(%esp)
 2420 1ade C7442404 		movl	$1, 4(%esp)
 2420      01000000 
 2421 1ae6 8B4508   		movl	8(%ebp), %eax
 2422 1ae9 890424   		movl	%eax, (%esp)
 2423 1aec E8000000 		call	_reset
 2423      00
 2424 1af1 EB56     		jmp	L271
 2425              	L267:
 2426 1af3 8B450C   		movl	12(%ebp), %eax
 2427 1af6 0FB68003 		movzbl	1027(%eax), %eax
 2427      040000
 2428 1afd 0FB6C0   		movzbl	%al, %eax
 2429 1b00 89442408 		movl	%eax, 8(%esp)
 2430 1b04 C7442404 		movl	$3, 4(%esp)
 2430      03000000 
 2431 1b0c 8B4508   		movl	8(%ebp), %eax
 2432 1b0f 890424   		movl	%eax, (%esp)
 2433 1b12 E8000000 		call	_reset
 2433      00
 2434 1b17 EB30     		jmp	L271
 2435              	L268:
 2436 1b19 8B450C   		movl	12(%ebp), %eax
 2437 1b1c 0FB68003 		movzbl	1027(%eax), %eax
 2437      040000
 2438 1b23 0FB6C0   		movzbl	%al, %eax
 2439 1b26 89442408 		movl	%eax, 8(%esp)
 2440 1b2a C7442404 		movl	$2, 4(%esp)
 2440      02000000 
 2441 1b32 8B4508   		movl	8(%ebp), %eax
 2442 1b35 890424   		movl	%eax, (%esp)
 2443 1b38 E8000000 		call	_reset
 2443      00
 2444 1b3d EB0A     		jmp	L271
 2445              	L311:
 2446 1b3f B8FCFFFF 		movl	$-4, %eax
 2446      FF
 2447 1b44 E9230500 		jmp	L234
 2447      00
 2448              	L271:
 2449 1b49 E9140500 		jmp	L256
 2449      00
 2450              	L254:
 2451 1b4e 8B450C   		movl	12(%ebp), %eax
 2452 1b51 0FB68001 		movzbl	1025(%eax), %eax
 2452      040000
 2453 1b58 0FB6C0   		movzbl	%al, %eax
 2454 1b5b 83E813   		subl	$19, %eax
 2455 1b5e 83F807   		cmpl	$7, %eax
 2456 1b61 0F877402 		ja	L272
 2456      0000
 2457 1b67 8B04857C 		movl	L274(,%eax,4), %eax
 2457      0B0000
 2458 1b6e FFE0     		jmp	*%eax
 2459              		.section .rdata,"dr"
 2460              		.align 4
 2461              	L274:
 2462 0b7c D81B0000 		.long	L273
 2463 0b80 8E1D0000 		.long	L275
 2464 0b84 3F1C0000 		.long	L276
 2465 0b88 301D0000 		.long	L277
 2466 0b8c 021D0000 		.long	L278
 2467 0b90 411D0000 		.long	L279
 2468 0b94 A21C0000 		.long	L280
 2469 0b98 701B0000 		.long	L281
 2470              		.text
 2471              	L281:
 2472 1b70 807DF700 		cmpb	$0, -9(%ebp)
 2473 1b74 7522     		jne	L282
 2474 1b76 8B4508   		movl	8(%ebp), %eax
 2475 1b79 8B5004   		movl	4(%eax), %edx
 2476 1b7c 8B450C   		movl	12(%ebp), %eax
 2477 1b7f 0FB68003 		movzbl	1027(%eax), %eax
 2477      040000
 2478 1b86 0FB6C0   		movzbl	%al, %eax
 2479 1b89 01D0     		addl	%edx, %eax
 2480 1b8b 0FB600   		movzbl	(%eax), %eax
 2481 1b8e A2000000 		movb	%al, _acc.3339
 2481      00
 2482 1b93 E94D0200 		jmp	L284
 2482      00
 2483              	L282:
 2484 1b98 8B450C   		movl	12(%ebp), %eax
 2485 1b9b 0FB68003 		movzbl	1027(%eax), %eax
 2485      040000
 2486 1ba2 C0E803   		shrb	$3, %al
 2487 1ba5 0FB6D0   		movzbl	%al, %edx
 2488 1ba8 8B450C   		movl	12(%ebp), %eax
 2489 1bab 0FB68004 		movzbl	1028(%eax), %eax
 2489      040000
 2490 1bb2 0FB6C0   		movzbl	%al, %eax
 2491 1bb5 01D0     		addl	%edx, %eax
 2492 1bb7 89442408 		movl	%eax, 8(%esp)
 2493 1bbb C7442404 		movl	$1, 4(%esp)
 2493      01000000 
 2494 1bc3 8B4508   		movl	8(%ebp), %eax
 2495 1bc6 890424   		movl	%eax, (%esp)
 2496 1bc9 E8000000 		call	_resolve
 2496      00
 2497 1bce A2000000 		movb	%al, _acc.3339
 2497      00
 2498 1bd3 E90D0200 		jmp	L284
 2498      00
 2499              	L273:
 2500 1bd8 807DF700 		cmpb	$0, -9(%ebp)
 2501 1bdc 7521     		jne	L285
 2502 1bde 8B4508   		movl	8(%ebp), %eax
 2503 1be1 8B10     		movl	(%eax), %edx
 2504 1be3 8B450C   		movl	12(%ebp), %eax
 2505 1be6 0FB68003 		movzbl	1027(%eax), %eax
 2505      040000
 2506 1bed 0FB6C0   		movzbl	%al, %eax
 2507 1bf0 01D0     		addl	%edx, %eax
 2508 1bf2 0FB600   		movzbl	(%eax), %eax
 2509 1bf5 A2000000 		movb	%al, _acc.3339
 2509      00
 2510 1bfa E9E60100 		jmp	L284
 2510      00
 2511              	L285:
 2512 1bff 8B450C   		movl	12(%ebp), %eax
 2513 1c02 0FB68003 		movzbl	1027(%eax), %eax
 2513      040000
 2514 1c09 C0E803   		shrb	$3, %al
 2515 1c0c 0FB6D0   		movzbl	%al, %edx
 2516 1c0f 8B450C   		movl	12(%ebp), %eax
 2517 1c12 0FB68004 		movzbl	1028(%eax), %eax
 2517      040000
 2518 1c19 0FB6C0   		movzbl	%al, %eax
 2519 1c1c 01D0     		addl	%edx, %eax
 2520 1c1e 89442408 		movl	%eax, 8(%esp)
 2521 1c22 C7442404 		movl	$0, 4(%esp)
 2521      00000000 
 2522 1c2a 8B4508   		movl	8(%ebp), %eax
 2523 1c2d 890424   		movl	%eax, (%esp)
 2524 1c30 E8000000 		call	_resolve
 2524      00
 2525 1c35 A2000000 		movb	%al, _acc.3339
 2525      00
 2526 1c3a E9A60100 		jmp	L284
 2526      00
 2527              	L276:
 2528 1c3f 807DF700 		cmpb	$0, -9(%ebp)
 2529 1c43 752F     		jne	L287
 2530 1c45 8B4508   		movl	8(%ebp), %eax
 2531 1c48 8B5030   		movl	48(%eax), %edx
 2532 1c4b 8B450C   		movl	12(%ebp), %eax
 2533 1c4e 0FB68003 		movzbl	1027(%eax), %eax
 2533      040000
 2534 1c55 0FB6C0   		movzbl	%al, %eax
 2535 1c58 C1E002   		sall	$2, %eax
 2536 1c5b 8D0CC500 		leal	0(,%eax,8), %ecx
 2536      000000
 2537 1c62 29C1     		subl	%eax, %ecx
 2538 1c64 89C8     		movl	%ecx, %eax
 2539 1c66 01D0     		addl	%edx, %eax
 2540 1c68 8B00     		movl	(%eax), %eax
 2541 1c6a A2000000 		movb	%al, _acc.3339
 2541      00
 2542 1c6f E9710100 		jmp	L284
 2542      00
 2543              	L287:
 2544 1c74 8B450C   		movl	12(%ebp), %eax
 2545 1c77 0FB68003 		movzbl	1027(%eax), %eax
 2545      040000
 2546 1c7e 0FB6C0   		movzbl	%al, %eax
 2547 1c81 89442408 		movl	%eax, 8(%esp)
 2548 1c85 C7442404 		movl	$2, 4(%esp)
 2548      02000000 
 2549 1c8d 8B4508   		movl	8(%ebp), %eax
 2550 1c90 890424   		movl	%eax, (%esp)
 2551 1c93 E8000000 		call	_resolve
 2551      00
 2552 1c98 A2000000 		movb	%al, _acc.3339
 2552      00
 2553 1c9d E9430100 		jmp	L284
 2553      00
 2554              	L280:
 2555 1ca2 807DF700 		cmpb	$0, -9(%ebp)
 2556 1ca6 752C     		jne	L289
 2557 1ca8 8B4508   		movl	8(%ebp), %eax
 2558 1cab 8B4828   		movl	40(%eax), %ecx
 2559 1cae 8B450C   		movl	12(%ebp), %eax
 2560 1cb1 0FB68003 		movzbl	1027(%eax), %eax
 2560      040000
 2561 1cb8 0FB6D0   		movzbl	%al, %edx
 2562 1cbb 89D0     		movl	%edx, %eax
 2563 1cbd C1E002   		sall	$2, %eax
 2564 1cc0 01D0     		addl	%edx, %eax
 2565 1cc2 C1E003   		sall	$3, %eax
 2566 1cc5 01C8     		addl	%ecx, %eax
 2567 1cc7 8B4008   		movl	8(%eax), %eax
 2568 1cca A2000000 		movb	%al, _acc.3339
 2568      00
 2569 1ccf E9110100 		jmp	L284
 2569      00
 2570              	L289:
 2571 1cd4 8B450C   		movl	12(%ebp), %eax
 2572 1cd7 0FB68003 		movzbl	1027(%eax), %eax
 2572      040000
 2573 1cde 0FB6C0   		movzbl	%al, %eax
 2574 1ce1 89442408 		movl	%eax, 8(%esp)
 2575 1ce5 C7442404 		movl	$3, 4(%esp)
 2575      03000000 
 2576 1ced 8B4508   		movl	8(%ebp), %eax
 2577 1cf0 890424   		movl	%eax, (%esp)
 2578 1cf3 E8000000 		call	_resolve
 2578      00
 2579 1cf8 A2000000 		movb	%al, _acc.3339
 2579      00
 2580 1cfd E9E30000 		jmp	L284
 2580      00
 2581              	L278:
 2582 1d02 8B450C   		movl	12(%ebp), %eax
 2583 1d05 0FB68003 		movzbl	1027(%eax), %eax
 2583      040000
 2584 1d0c 0FB6C0   		movzbl	%al, %eax
 2585 1d0f 89442408 		movl	%eax, 8(%esp)
 2586 1d13 C7442404 		movl	$4, 4(%esp)
 2586      04000000 
 2587 1d1b 8B4508   		movl	8(%ebp), %eax
 2588 1d1e 890424   		movl	%eax, (%esp)
 2589 1d21 E8000000 		call	_resolve
 2589      00
 2590 1d26 A2000000 		movb	%al, _acc.3339
 2590      00
 2591 1d2b E9B50000 		jmp	L284
 2591      00
 2592              	L277:
 2593 1d30 8B4508   		movl	8(%ebp), %eax
 2594 1d33 0FB6401C 		movzbl	28(%eax), %eax
 2595 1d37 A2000000 		movb	%al, _acc.3339
 2595      00
 2596 1d3c E9A40000 		jmp	L284
 2596      00
 2597              	L279:
 2598 1d41 807DF700 		cmpb	$0, -9(%ebp)
 2599 1d45 750A     		jne	L291
 2600 1d47 B8FCFFFF 		movl	$-4, %eax
 2600      FF
 2601 1d4c E91B0300 		jmp	L234
 2601      00
 2602              	L291:
 2603 1d51 8B450C   		movl	12(%ebp), %eax
 2604 1d54 0FB68003 		movzbl	1027(%eax), %eax
 2604      040000
 2605 1d5b C0E803   		shrb	$3, %al
 2606 1d5e 0FB6D0   		movzbl	%al, %edx
 2607 1d61 8B450C   		movl	12(%ebp), %eax
 2608 1d64 0FB68004 		movzbl	1028(%eax), %eax
 2608      040000
 2609 1d6b 0FB6C0   		movzbl	%al, %eax
 2610 1d6e 01D0     		addl	%edx, %eax
 2611 1d70 89442408 		movl	%eax, 8(%esp)
 2612 1d74 C7442404 		movl	$0, 4(%esp)
 2612      00000000 
 2613 1d7c 8B4508   		movl	8(%ebp), %eax
 2614 1d7f 890424   		movl	%eax, (%esp)
 2615 1d82 E8000000 		call	_re
 2615      00
 2616 1d87 A2000000 		movb	%al, _acc.3339
 2616      00
 2617 1d8c EB57     		jmp	L284
 2618              	L275:
 2619 1d8e 807DF700 		cmpb	$0, -9(%ebp)
 2620 1d92 750A     		jne	L292
 2621 1d94 B8FCFFFF 		movl	$-4, %eax
 2621      FF
 2622 1d99 E9CE0200 		jmp	L234
 2622      00
 2623              	L292:
 2624 1d9e 8B450C   		movl	12(%ebp), %eax
 2625 1da1 0FB68003 		movzbl	1027(%eax), %eax
 2625      040000
 2626 1da8 C0E803   		shrb	$3, %al
 2627 1dab 0FB6D0   		movzbl	%al, %edx
 2628 1dae 8B450C   		movl	12(%ebp), %eax
 2629 1db1 0FB68004 		movzbl	1028(%eax), %eax
 2629      040000
 2630 1db8 0FB6C0   		movzbl	%al, %eax
 2631 1dbb 01D0     		addl	%edx, %eax
 2632 1dbd 89442408 		movl	%eax, 8(%esp)
 2633 1dc1 C7442404 		movl	$0, 4(%esp)
 2633      00000000 
 2634 1dc9 8B4508   		movl	8(%ebp), %eax
 2635 1dcc 890424   		movl	%eax, (%esp)
 2636 1dcf E8000000 		call	_fe
 2636      00
 2637 1dd4 A2000000 		movb	%al, _acc.3339
 2637      00
 2638 1dd9 EB0A     		jmp	L284
 2639              	L272:
 2640 1ddb B8FCFFFF 		movl	$-4, %eax
 2640      FF
 2641 1de0 E9870200 		jmp	L234
 2641      00
 2642              	L284:
 2643 1de5 8B450C   		movl	12(%ebp), %eax
 2644 1de8 0FB68002 		movzbl	1026(%eax), %eax
 2644      040000
 2645 1def 3C01     		cmpb	$1, %al
 2646 1df1 7513     		jne	L293
 2647 1df3 0FB60500 		movzbl	_acc.3339, %eax
 2647      000000
 2648 1dfa F7D0     		notl	%eax
 2649 1dfc A2000000 		movb	%al, _acc.3339
 2649      00
 2650 1e01 E95C0200 		jmp	L256
 2650      00
 2651              	L293:
 2652 1e06 E9570200 		jmp	L256
 2652      00
 2653              	L255:
 2654 1e0b 8B450C   		movl	12(%ebp), %eax
 2655 1e0e 0FB68002 		movzbl	1026(%eax), %eax
 2655      040000
 2656 1e15 3C01     		cmpb	$1, %al
 2657 1e17 750E     		jne	L294
 2658 1e19 0FB60500 		movzbl	_acc.3339, %eax
 2658      000000
 2659 1e20 F7D0     		notl	%eax
 2660 1e22 A2000000 		movb	%al, _acc.3339
 2660      00
 2661              	L294:
 2662 1e27 8B450C   		movl	12(%ebp), %eax
 2663 1e2a 0FB68001 		movzbl	1025(%eax), %eax
 2663      040000
 2664 1e31 0FB6C0   		movzbl	%al, %eax
 2665 1e34 83F81C   		cmpl	$28, %eax
 2666 1e37 0F849D00 		je	L296
 2666      0000
 2667 1e3d 83F81C   		cmpl	$28, %eax
 2668 1e40 7F0A     		jg	L297
 2669 1e42 83F81B   		cmpl	$27, %eax
 2670 1e45 741C     		je	L298
 2671 1e47 E9470100 		jmp	L295
 2671      00
 2672              	L297:
 2673 1e4c 83F81D   		cmpl	$29, %eax
 2674 1e4f 0F84C100 		je	L299
 2674      0000
 2675 1e55 83F81E   		cmpl	$30, %eax
 2676 1e58 0F842801 		je	L300
 2676      0000
 2677 1e5e E9300100 		jmp	L295
 2677      00
 2678              	L298:
 2679 1e63 807DF700 		cmpb	$0, -9(%ebp)
 2680 1e67 7523     		jne	L301
 2681 1e69 8B4508   		movl	8(%ebp), %eax
 2682 1e6c 8B5004   		movl	4(%eax), %edx
 2683 1e6f 8B450C   		movl	12(%ebp), %eax
 2684 1e72 0FB68003 		movzbl	1027(%eax), %eax
 2684      040000
 2685 1e79 0FB6C0   		movzbl	%al, %eax
 2686 1e7c 01C2     		addl	%eax, %edx
 2687 1e7e 0FB60500 		movzbl	_acc.3339, %eax
 2687      000000
 2688 1e85 8802     		movb	%al, (%edx)
 2689 1e87 E9110100 		jmp	L303
 2689      00
 2690              	L301:
 2691 1e8c 0FB60500 		movzbl	_acc.3339, %eax
 2691      000000
 2692 1e93 0FB6C0   		movzbl	%al, %eax
 2693 1e96 83E001   		andl	$1, %eax
 2694 1e99 89C2     		movl	%eax, %edx
 2695 1e9b 8B450C   		movl	12(%ebp), %eax
 2696 1e9e 0FB68003 		movzbl	1027(%eax), %eax
 2696      040000
 2697 1ea5 C0E803   		shrb	$3, %al
 2698 1ea8 0FB6C8   		movzbl	%al, %ecx
 2699 1eab 8B450C   		movl	12(%ebp), %eax
 2700 1eae 0FB68004 		movzbl	1028(%eax), %eax
 2700      040000
 2701 1eb5 0FB6C0   		movzbl	%al, %eax
 2702 1eb8 01C8     		addl	%ecx, %eax
 2703 1eba 8954240C 		movl	%edx, 12(%esp)
 2704 1ebe 89442408 		movl	%eax, 8(%esp)
 2705 1ec2 C7442404 		movl	$1, 4(%esp)
 2705      01000000 
 2706 1eca 8B4508   		movl	8(%ebp), %eax
 2707 1ecd 890424   		movl	%eax, (%esp)
 2708 1ed0 E8000000 		call	_contact
 2708      00
 2709 1ed5 E9C30000 		jmp	L303
 2709      00
 2710              	L296:
 2711 1eda 0FB60500 		movzbl	_acc.3339, %eax
 2711      000000
 2712 1ee1 0FB6C0   		movzbl	%al, %eax
 2713 1ee4 83E001   		andl	$1, %eax
 2714 1ee7 89C2     		movl	%eax, %edx
 2715 1ee9 8B450C   		movl	12(%ebp), %eax
 2716 1eec 0FB68003 		movzbl	1027(%eax), %eax
 2716      040000
 2717 1ef3 0FB6C0   		movzbl	%al, %eax
 2718 1ef6 8954240C 		movl	%edx, 12(%esp)
 2719 1efa 89442408 		movl	%eax, 8(%esp)
 2720 1efe C7442404 		movl	$3, 4(%esp)
 2720      03000000 
 2721 1f06 8B4508   		movl	8(%ebp), %eax
 2722 1f09 890424   		movl	%eax, (%esp)
 2723 1f0c E8000000 		call	_contact
 2723      00
 2724 1f11 E9870000 		jmp	L303
 2724      00
 2725              	L299:
 2726 1f16 807DF700 		cmpb	$0, -9(%ebp)
 2727 1f1a 7531     		jne	L304
 2728 1f1c 8B4508   		movl	8(%ebp), %eax
 2729 1f1f 8B5030   		movl	48(%eax), %edx
 2730 1f22 8B450C   		movl	12(%ebp), %eax
 2731 1f25 0FB68003 		movzbl	1027(%eax), %eax
 2731      040000
 2732 1f2c 0FB6C0   		movzbl	%al, %eax
 2733 1f2f C1E002   		sall	$2, %eax
 2734 1f32 8D0CC500 		leal	0(,%eax,8), %ecx
 2734      000000
 2735 1f39 29C1     		subl	%eax, %ecx
 2736 1f3b 89C8     		movl	%ecx, %eax
 2737 1f3d 01C2     		addl	%eax, %edx
 2738 1f3f 0FB60500 		movzbl	_acc.3339, %eax
 2738      000000
 2739 1f46 0FB6C0   		movzbl	%al, %eax
 2740 1f49 8902     		movl	%eax, (%edx)
 2741 1f4b EB50     		jmp	L303
 2742              	L304:
 2743 1f4d 0FB60500 		movzbl	_acc.3339, %eax
 2743      000000
 2744 1f54 0FB6C0   		movzbl	%al, %eax
 2745 1f57 83E001   		andl	$1, %eax
 2746 1f5a 89C2     		movl	%eax, %edx
 2747 1f5c 8B450C   		movl	12(%ebp), %eax
 2748 1f5f 0FB68003 		movzbl	1027(%eax), %eax
 2748      040000
 2749 1f66 0FB6C0   		movzbl	%al, %eax
 2750 1f69 8954240C 		movl	%edx, 12(%esp)
 2751 1f6d 89442408 		movl	%eax, 8(%esp)
 2752 1f71 C7442404 		movl	$2, 4(%esp)
 2752      02000000 
 2753 1f79 8B4508   		movl	8(%ebp), %eax
 2754 1f7c 890424   		movl	%eax, (%esp)
 2755 1f7f E8000000 		call	_contact
 2755      00
 2756 1f84 EB17     		jmp	L303
 2757              	L300:
 2758 1f86 0FB61500 		movzbl	_acc.3339, %edx
 2758      000000
 2759 1f8d 8B4508   		movl	8(%ebp), %eax
 2760 1f90 88501C   		movb	%dl, 28(%eax)
 2761              	L295:
 2762 1f93 B8FCFFFF 		movl	$-4, %eax
 2762      FF
 2763 1f98 E9CF0000 		jmp	L234
 2763      00
 2764              	L303:
 2765 1f9d E9C00000 		jmp	L256
 2765      00
 2766              	L246:
 2767 1fa2 8B450C   		movl	12(%ebp), %eax
 2768 1fa5 0FB68002 		movzbl	1026(%eax), %eax
 2768      040000
 2769 1fac 3C01     		cmpb	$1, %al
 2770 1fae 7516     		jne	L306
 2771 1fb0 8B450C   		movl	12(%ebp), %eax
 2772 1fb3 0FB68001 		movzbl	1025(%eax), %eax
 2772      040000
 2773 1fba 8D5080   		leal	-128(%eax), %edx
 2774 1fbd 8B450C   		movl	12(%ebp), %eax
 2775 1fc0 88900104 		movb	%dl, 1025(%eax)
 2775      0000
 2776              	L306:
 2777 1fc6 8B450C   		movl	12(%ebp), %eax
 2778 1fc9 0FB68002 		movzbl	1026(%eax), %eax
 2778      040000
 2779 1fd0 3C02     		cmpb	$2, %al
 2780 1fd2 7552     		jne	L307
 2781 1fd4 0FB60500 		movzbl	_acc.3339, %eax
 2781      000000
 2782 1fdb 0FB6D0   		movzbl	%al, %edx
 2783 1fde 8B450C   		movl	12(%ebp), %eax
 2784 1fe1 0FB68000 		movzbl	1024(%eax), %eax
 2784      040000
 2785 1fe8 0FB6C0   		movzbl	%al, %eax
 2786 1feb 89542404 		movl	%edx, 4(%esp)
 2787 1fef 890424   		movl	%eax, (%esp)
 2788 1ff2 E815F2FF 		call	_push
 2788      FF
 2789 1ff7 8B450C   		movl	12(%ebp), %eax
 2790 1ffa C6800004 		movb	$10, 1024(%eax)
 2790      00000A
 2791 2001 8B450C   		movl	12(%ebp), %eax
 2792 2004 C6800204 		movb	$3, 1026(%eax)
 2792      000003
 2793 200b 8B4510   		movl	16(%ebp), %eax
 2794 200e 89442408 		movl	%eax, 8(%esp)
 2795 2012 8B450C   		movl	12(%ebp), %eax
 2796 2015 89442404 		movl	%eax, 4(%esp)
 2797 2019 8B4508   		movl	8(%ebp), %eax
 2798 201c 890424   		movl	%eax, (%esp)
 2799 201f E842F7FF 		call	_instruct
 2799      FF
 2800 2024 EB3C     		jmp	L256
 2801              	L307:
 2802 2026 8B450C   		movl	12(%ebp), %eax
 2803 2029 0FB68001 		movzbl	1025(%eax), %eax
 2803      040000
 2804 2030 0FB6C8   		movzbl	%al, %ecx
 2805 2033 0FB60500 		movzbl	_acc.3339, %eax
 2805      000000
 2806 203a 0FB6D0   		movzbl	%al, %edx
 2807 203d 8B450C   		movl	12(%ebp), %eax
 2808 2040 0FB68000 		movzbl	1024(%eax), %eax
 2808      040000
 2809 2047 0FB6C0   		movzbl	%al, %eax
 2810 204a 894C2408 		movl	%ecx, 8(%esp)
 2811 204e 89542404 		movl	%edx, 4(%esp)
 2812 2052 890424   		movl	%eax, (%esp)
 2813 2055 E81B0000 		call	_operate
 2813      00
 2814 205a A2000000 		movb	%al, _acc.3339
 2814      00
 2815 205f EB01     		jmp	L256
 2816              	L312:
 2817 2061 90       		nop
 2818              	L256:
 2819 2062 0FB60500 		movzbl	_acc.3339, %eax
 2819      000000
 2820 2069 0FB6C0   		movzbl	%al, %eax
 2821              	L234:
 2822 206c 89DC     		movl	%ebx, %esp
 2823 206e 8D65F8   		leal	-8(%ebp), %esp
 2824 2071 5B       		popl	%ebx
 2825 2072 5E       		popl	%esi
 2826 2073 5D       		popl	%ebp
 2827 2074 C3       		ret
 2828              		.globl	_operate
 2830              	_operate:
 2831 2075 55       		pushl	%ebp
 2832 2076 89E5     		movl	%esp, %ebp
 2833 2078 83EC1C   		subl	$28, %esp
 2834 207b 8B4D08   		movl	8(%ebp), %ecx
 2835 207e 8B550C   		movl	12(%ebp), %edx
 2836 2081 8B4510   		movl	16(%ebp), %eax
 2837 2084 884DEC   		movb	%cl, -20(%ebp)
 2838 2087 8855E8   		movb	%dl, -24(%ebp)
 2839 208a 8845E4   		movb	%al, -28(%ebp)
 2840 208d C645FE00 		movb	$0, -2(%ebp)
 2841 2091 C645FF00 		movb	$0, -1(%ebp)
 2842 2095 0FB645EC 		movzbl	-20(%ebp), %eax
 2843 2099 83E040   		andl	$64, %eax
 2844 209c 85C0     		testl	%eax, %eax
 2845 209e 7416     		je	L314
 2846 20a0 8065E801 		andb	$1, -24(%ebp)
 2847 20a4 807DE400 		cmpb	$0, -28(%ebp)
 2848 20a8 0F95C0   		setne	%al
 2849 20ab 8845E4   		movb	%al, -28(%ebp)
 2850 20ae 806DEC40 		subb	$64, -20(%ebp)
 2851 20b2 C645FF01 		movb	$1, -1(%ebp)
 2852              	L314:
 2853 20b6 0FB645EC 		movzbl	-20(%ebp), %eax
 2854 20ba 84C0     		testb	%al, %al
 2855 20bc 7907     		jns	L315
 2856 20be 8045EC80 		addb	$-128, -20(%ebp)
 2857 20c2 F655E4   		notb	-28(%ebp)
 2858              	L315:
 2859 20c5 0FB645EC 		movzbl	-20(%ebp), %eax
 2860 20c9 83E807   		subl	$7, %eax
 2861 20cc 83F80E   		cmpl	$14, %eax
 2862 20cf 0F871A01 		ja	L338
 2862      0000
 2863 20d5 8B04859C 		movl	L318(,%eax,4), %eax
 2863      0B0000
 2864 20dc FFE0     		jmp	*%eax
 2865              		.section .rdata,"dr"
 2866              		.align 4
 2867              	L318:
 2868 0b9c DE200000 		.long	L317
 2869 0ba0 F0200000 		.long	L319
 2870 0ba4 02210000 		.long	L320
 2871 0ba8 EF210000 		.long	L338
 2872 0bac EF210000 		.long	L338
 2873 0bb0 14210000 		.long	L321
 2874 0bb4 4C210000 		.long	L322
 2875 0bb8 7A210000 		.long	L323
 2876 0bbc 86210000 		.long	L324
 2877 0bc0 95210000 		.long	L325
 2878 0bc4 A4210000 		.long	L326
 2879 0bc8 B3210000 		.long	L327
 2880 0bcc C2210000 		.long	L328
 2881 0bd0 D1210000 		.long	L329
 2882 0bd4 E0210000 		.long	L330
 2883 0bd8 00000000 		.text
 2883      00000000 
 2884              	L317:
 2885 20de 0FB645E4 		movzbl	-28(%ebp), %eax
 2886 20e2 0FB655E8 		movzbl	-24(%ebp), %edx
 2887 20e6 21D0     		andl	%edx, %eax
 2888 20e8 8845FE   		movb	%al, -2(%ebp)
 2889 20eb E9000100 		jmp	L331
 2889      00
 2890              	L319:
 2891 20f0 0FB645E4 		movzbl	-28(%ebp), %eax
 2892 20f4 0FB655E8 		movzbl	-24(%ebp), %edx
 2893 20f8 09D0     		orl	%edx, %eax
 2894 20fa 8845FE   		movb	%al, -2(%ebp)
 2895 20fd E9EE0000 		jmp	L331
 2895      00
 2896              	L320:
 2897 2102 0FB645E4 		movzbl	-28(%ebp), %eax
 2898 2106 0FB655E8 		movzbl	-24(%ebp), %edx
 2899 210a 31D0     		xorl	%edx, %eax
 2900 210c 8845FE   		movb	%al, -2(%ebp)
 2901 210f E9DC0000 		jmp	L331
 2901      00
 2902              	L321:
 2903 2114 0FB655E8 		movzbl	-24(%ebp), %edx
 2904 2118 0FB645E4 		movzbl	-28(%ebp), %eax
 2905 211c 01D0     		addl	%edx, %eax
 2906 211e 3DFF0000 		cmpl	$255, %eax
 2906      00
 2907 2123 7E15     		jle	L332
 2908 2125 0FB645E4 		movzbl	-28(%ebp), %eax
 2909 2129 0FB655E8 		movzbl	-24(%ebp), %edx
 2910 212d 01D0     		addl	%edx, %eax
 2911 212f 83C001   		addl	$1, %eax
 2912 2132 8845FE   		movb	%al, -2(%ebp)
 2913 2135 E9B60000 		jmp	L331
 2913      00
 2914              	L332:
 2915 213a 0FB645E4 		movzbl	-28(%ebp), %eax
 2916 213e 0FB655E8 		movzbl	-24(%ebp), %edx
 2917 2142 01D0     		addl	%edx, %eax
 2918 2144 8845FE   		movb	%al, -2(%ebp)
 2919 2147 E9A40000 		jmp	L331
 2919      00
 2920              	L322:
 2921 214c 0FB645E8 		movzbl	-24(%ebp), %eax
 2922 2150 3A45E4   		cmpb	-28(%ebp), %al
 2923 2153 7214     		jb	L334
 2924 2155 0FB645E4 		movzbl	-28(%ebp), %eax
 2925 2159 0FB655E8 		movzbl	-24(%ebp), %edx
 2926 215d 29C2     		subl	%eax, %edx
 2927 215f 89D0     		movl	%edx, %eax
 2928 2161 8845FE   		movb	%al, -2(%ebp)
 2929 2164 E9870000 		jmp	L331
 2929      00
 2930              	L334:
 2931 2169 0FB645E4 		movzbl	-28(%ebp), %eax
 2932 216d 0FB655E8 		movzbl	-24(%ebp), %edx
 2933 2171 29C2     		subl	%eax, %edx
 2934 2173 89D0     		movl	%edx, %eax
 2935 2175 8845FE   		movb	%al, -2(%ebp)
 2936 2178 EB76     		jmp	L331
 2937              	L323:
 2938 217a 0FB645E8 		movzbl	-24(%ebp), %eax
 2939 217e F665E4   		mulb	-28(%ebp)
 2940 2181 8845FE   		movb	%al, -2(%ebp)
 2941 2184 EB6A     		jmp	L331
 2942              	L324:
 2943 2186 0FB645E8 		movzbl	-24(%ebp), %eax
 2944 218a 0FB6C0   		movzbl	%al, %eax
 2945 218d F675E4   		divb	-28(%ebp)
 2946 2190 8845FE   		movb	%al, -2(%ebp)
 2947 2193 EB5B     		jmp	L331
 2948              	L325:
 2949 2195 0FB645E8 		movzbl	-24(%ebp), %eax
 2950 2199 3A45E4   		cmpb	-28(%ebp), %al
 2951 219c 0F97C0   		seta	%al
 2952 219f 8845FE   		movb	%al, -2(%ebp)
 2953 21a2 EB4C     		jmp	L331
 2954              	L326:
 2955 21a4 0FB645E8 		movzbl	-24(%ebp), %eax
 2956 21a8 3A45E4   		cmpb	-28(%ebp), %al
 2957 21ab 0F93C0   		setae	%al
 2958 21ae 8845FE   		movb	%al, -2(%ebp)
 2959 21b1 EB3D     		jmp	L331
 2960              	L327:
 2961 21b3 0FB645E8 		movzbl	-24(%ebp), %eax
 2962 21b7 3A45E4   		cmpb	-28(%ebp), %al
 2963 21ba 0F94C0   		sete	%al
 2964 21bd 8845FE   		movb	%al, -2(%ebp)
 2965 21c0 EB2E     		jmp	L331
 2966              	L328:
 2967 21c2 0FB645E8 		movzbl	-24(%ebp), %eax
 2968 21c6 3A45E4   		cmpb	-28(%ebp), %al
 2969 21c9 0F95C0   		setne	%al
 2970 21cc 8845FE   		movb	%al, -2(%ebp)
 2971 21cf EB1F     		jmp	L331
 2972              	L329:
 2973 21d1 0FB645E8 		movzbl	-24(%ebp), %eax
 2974 21d5 3A45E4   		cmpb	-28(%ebp), %al
 2975 21d8 0F92C0   		setb	%al
 2976 21db 8845FE   		movb	%al, -2(%ebp)
 2977 21de EB10     		jmp	L331
 2978              	L330:
 2979 21e0 0FB645E8 		movzbl	-24(%ebp), %eax
 2980 21e4 3A45E4   		cmpb	-28(%ebp), %al
 2981 21e7 0F96C0   		setbe	%al
 2982 21ea 8845FE   		movb	%al, -2(%ebp)
 2983 21ed EB01     		jmp	L331
 2984              	L338:
 2985 21ef 90       		nop
 2986              	L331:
 2987 21f0 807DFF00 		cmpb	$0, -1(%ebp)
 2988 21f4 7409     		je	L336
 2989 21f6 0FB645FE 		movzbl	-2(%ebp), %eax
 2990 21fa 83E001   		andl	$1, %eax
 2991 21fd EB04     		jmp	L337
 2992              	L336:
 2993 21ff 0FB645FE 		movzbl	-2(%ebp), %eax
 2994              	L337:
 2995 2203 C9       		leave
 2996 2204 C3       		ret
 2997              	.lcomm _acc.3339,1,1
 2998              		.ident	"GCC: (tdm-2) 4.8.1"
DEFINED SYMBOLS
                            *ABS*:00000000 parser.c
                            *COM*:00000034 _plc
                            *COM*:00000004 _Use_comedi
                            *COM*:00000004 _Step
                            *COM*:00000004 _Sigenable
                            *COM*:00000004 _Pagelen
                            *COM*:00000004 _Pagewidth
                            *COM*:00000004 _Nt
                            *COM*:00000004 _Ns
                            *COM*:00000004 _Nm
                            *COM*:00000004 _Di
                            *COM*:00000004 _Dq
                            *COM*:00000004 _Base
                            *COM*:00000004 _Wr_offs
                            *COM*:00000004 _Rd_offs
                            *COM*:00000004 _Comedi_file
                            *COM*:00000004 _Comedi_subdev_i
                            *COM*:00000004 _Comedi_subdev_q
                            *COM*:04000000 _Lines
                            *COM*:00000004 _Lineno
                            *COM*:00040000 _Pos
                            *COM*:00010000 _Val
                            *COM*:04000000 _Labels
                            *COM*:00000001 _Command
                            *COM*:00000001 _Response
                            *COM*:00000004 _Stack
C:\Users\Bharat\AppData\Local\Temp\ccX2cGIh.s:30     .rdata:00000000 _errmsg
C:\Users\Bharat\AppData\Local\Temp\ccX2cGIh.s:49     .rdata:00000800 _il_commands
C:\Users\Bharat\AppData\Local\Temp\ccX2cGIh.s:88     .text:00000000 _extract_number
C:\Users\Bharat\AppData\Local\Temp\ccX2cGIh.s:144    .text:00000083 _read_char
C:\Users\Bharat\AppData\Local\Temp\ccX2cGIh.s:408    .text:0000025e _resolve_operand
C:\Users\Bharat\AppData\Local\Temp\ccX2cGIh.s:563    .text:00000428 _resolve_coil
C:\Users\Bharat\AppData\Local\Temp\ccX2cGIh.s:689    .text:00000572 _resolve_set
C:\Users\Bharat\AppData\Local\Temp\ccX2cGIh.s:778    .text:00000674 _resolve_reset
C:\Users\Bharat\AppData\Local\Temp\ccX2cGIh.s:878    .text:0000076e _resolve_lines
C:\Users\Bharat\AppData\Local\Temp\ccX2cGIh.s:1318   .text:00000d17 _minmin
C:\Users\Bharat\AppData\Local\Temp\ccX2cGIh.s:1377   .text:00000d8b _LD_task
C:\Users\Bharat\AppData\Local\Temp\ccX2cGIh.s:1646   .text:00001112 _IL_task
C:\Users\Bharat\AppData\Local\Temp\ccX2cGIh.s:1723   .text:0000120c _push
C:\Users\Bharat\AppData\Local\Temp\ccX2cGIh.s:1749   .text:00001256 _pop
C:\Users\Bharat\AppData\Local\Temp\ccX2cGIh.s:1786   .text:000012c6 _parse_il_line
C:\Users\Bharat\AppData\Local\Temp\ccX2cGIh.s:2139   .text:00001766 _instruct
                             .bss:00000000 _acc.3339
C:\Users\Bharat\AppData\Local\Temp\ccX2cGIh.s:2830   .text:00002075 _operate

UNDEFINED SYMBOLS
___chkstk_ms
_strlen
_resolve
_fe
_re
_contact
_set
_down_timer
_reset
_printf
_sprintf
_puts
_malloc
_free
_memset
_strrchr
_strcpy
_strchr
_strcmp
_isalpha
_isalnum
