   1              		.file	"plclib.c"
   2              		.comm	_plc, 52, 5
   3              		.comm	_Use_comedi, 4, 2
   4              		.comm	_Step, 4, 2
   5              		.comm	_Sigenable, 4, 2
   6              		.comm	_Pagelen, 4, 2
   7              		.comm	_Pagewidth, 4, 2
   8              		.comm	_Nt, 4, 2
   9              		.comm	_Ns, 4, 2
  10              		.comm	_Nm, 4, 2
  11              		.comm	_Di, 4, 2
  12              		.comm	_Dq, 4, 2
  13              		.comm	_Base, 4, 2
  14              		.comm	_Wr_offs, 4, 2
  15              		.comm	_Rd_offs, 4, 2
  16              		.comm	_Comedi_file, 4, 2
  17              		.comm	_Comedi_subdev_i, 4, 2
  18              		.comm	_Comedi_subdev_q, 4, 2
  19              		.comm	_Lines, 67108864, 5
  20              		.comm	_Lineno, 4, 2
  21              		.comm	_Pos, 262144, 5
  22              		.comm	_Val, 65536, 5
  23              		.comm	_Labels, 67108864, 5
  24              		.comm	_Command, 1, 0
  25              		.comm	_Response, 1, 0
  26              		.text
  27              		.globl	_dec_inp
  29              	_dec_inp:
  30 0000 55       		pushl	%ebp
  31 0001 89E5     		movl	%esp, %ebp
  32 0003 56       		pushl	%esi
  33 0004 53       		pushl	%ebx
  34 0005 83EC10   		subl	$16, %esp
  35 0008 C745F400 		movl	$0, -12(%ebp)
  35      000000
  36 000f E9510100 		jmp	L2
  36      00
  37              	L7:
  38 0014 8B4508   		movl	8(%ebp), %eax
  39 0017 8B4820   		movl	32(%eax), %ecx
  40 001a 8B55F4   		movl	-12(%ebp), %edx
  41 001d 89D0     		movl	%edx, %eax
  42 001f C1E003   		sall	$3, %eax
  43 0022 01D0     		addl	%edx, %eax
  44 0024 01C0     		addl	%eax, %eax
  45 0026 01D0     		addl	%edx, %eax
  46 0028 8D1C01   		leal	(%ecx,%eax), %ebx
  47 002b 8B4508   		movl	8(%ebp), %eax
  48 002e 8B10     		movl	(%eax), %edx
  49 0030 8B45F4   		movl	-12(%ebp), %eax
  50 0033 8D4807   		leal	7(%eax), %ecx
  51 0036 85C0     		testl	%eax, %eax
  52 0038 0F48C1   		cmovs	%ecx, %eax
  53 003b C1F803   		sarl	$3, %eax
  54 003e 01D0     		addl	%edx, %eax
  55 0040 0FB600   		movzbl	(%eax), %eax
  56 0043 0FB6F0   		movzbl	%al, %esi
  57 0046 8B45F4   		movl	-12(%ebp), %eax
  58 0049 99       		cltd
  59 004a C1EA1D   		shrl	$29, %edx
  60 004d 01D0     		addl	%edx, %eax
  61 004f 83E007   		andl	$7, %eax
  62 0052 29D0     		subl	%edx, %eax
  63 0054 89C1     		movl	%eax, %ecx
  64 0056 D3FE     		sarl	%cl, %esi
  65 0058 89F2     		movl	%esi, %edx
  66 005a 89D0     		movl	%edx, %eax
  67 005c C1F81F   		sarl	$31, %eax
  68 005f C1E81F   		shrl	$31, %eax
  69 0062 01C2     		addl	%eax, %edx
  70 0064 83E201   		andl	$1, %edx
  71 0067 29C2     		subl	%eax, %edx
  72 0069 89D0     		movl	%edx, %eax
  73 006b 8803     		movb	%al, (%ebx)
  74 006d 8B4508   		movl	8(%ebp), %eax
  75 0070 8B4820   		movl	32(%eax), %ecx
  76 0073 8B55F4   		movl	-12(%ebp), %edx
  77 0076 89D0     		movl	%edx, %eax
  78 0078 C1E003   		sall	$3, %eax
  79 007b 01D0     		addl	%edx, %eax
  80 007d 01C0     		addl	%eax, %eax
  81 007f 01D0     		addl	%edx, %eax
  82 0081 8D1C01   		leal	(%ecx,%eax), %ebx
  83 0084 8B4508   		movl	8(%ebp), %eax
  84 0087 8B4820   		movl	32(%eax), %ecx
  85 008a 8B55F4   		movl	-12(%ebp), %edx
  86 008d 89D0     		movl	%edx, %eax
  87 008f C1E003   		sall	$3, %eax
  88 0092 01D0     		addl	%edx, %eax
  89 0094 01C0     		addl	%eax, %eax
  90 0096 01D0     		addl	%edx, %eax
  91 0098 01C8     		addl	%ecx, %eax
  92 009a 0FB600   		movzbl	(%eax), %eax
  93 009d 84C0     		testb	%al, %al
  94 009f 743E     		je	L3
  95 00a1 8B4508   		movl	8(%ebp), %eax
  96 00a4 8B5008   		movl	8(%eax), %edx
  97 00a7 8B45F4   		movl	-12(%ebp), %eax
  98 00aa 8D4807   		leal	7(%eax), %ecx
  99 00ad 85C0     		testl	%eax, %eax
 100 00af 0F48C1   		cmovs	%ecx, %eax
 101 00b2 C1F803   		sarl	$3, %eax
 102 00b5 01D0     		addl	%edx, %eax
 103 00b7 0FB600   		movzbl	(%eax), %eax
 104 00ba 0FB6F0   		movzbl	%al, %esi
 105 00bd 8B45F4   		movl	-12(%ebp), %eax
 106 00c0 99       		cltd
 107 00c1 C1EA1D   		shrl	$29, %edx
 108 00c4 01D0     		addl	%edx, %eax
 109 00c6 83E007   		andl	$7, %eax
 110 00c9 29D0     		subl	%edx, %eax
 111 00cb 89C1     		movl	%eax, %ecx
 112 00cd D3FE     		sarl	%cl, %esi
 113 00cf 89F0     		movl	%esi, %eax
 114 00d1 83E001   		andl	$1, %eax
 115 00d4 85C0     		testl	%eax, %eax
 116 00d6 7407     		je	L3
 117 00d8 B8010000 		movl	$1, %eax
 117      00
 118 00dd EB05     		jmp	L4
 119              	L3:
 120 00df B8000000 		movl	$0, %eax
 120      00
 121              	L4:
 122 00e4 884301   		movb	%al, 1(%ebx)
 123 00e7 8B4508   		movl	8(%ebp), %eax
 124 00ea 8B4820   		movl	32(%eax), %ecx
 125 00ed 8B55F4   		movl	-12(%ebp), %edx
 126 00f0 89D0     		movl	%edx, %eax
 127 00f2 C1E003   		sall	$3, %eax
 128 00f5 01D0     		addl	%edx, %eax
 129 00f7 01C0     		addl	%eax, %eax
 130 00f9 01D0     		addl	%edx, %eax
 131 00fb 8D1C01   		leal	(%ecx,%eax), %ebx
 132 00fe 8B4508   		movl	8(%ebp), %eax
 133 0101 8B4820   		movl	32(%eax), %ecx
 134 0104 8B55F4   		movl	-12(%ebp), %edx
 135 0107 89D0     		movl	%edx, %eax
 136 0109 C1E003   		sall	$3, %eax
 137 010c 01D0     		addl	%edx, %eax
 138 010e 01C0     		addl	%eax, %eax
 139 0110 01D0     		addl	%edx, %eax
 140 0112 01C8     		addl	%ecx, %eax
 141 0114 0FB600   		movzbl	(%eax), %eax
 142 0117 84C0     		testb	%al, %al
 143 0119 753E     		jne	L5
 144 011b 8B4508   		movl	8(%ebp), %eax
 145 011e 8B5008   		movl	8(%eax), %edx
 146 0121 8B45F4   		movl	-12(%ebp), %eax
 147 0124 8D4807   		leal	7(%eax), %ecx
 148 0127 85C0     		testl	%eax, %eax
 149 0129 0F48C1   		cmovs	%ecx, %eax
 150 012c C1F803   		sarl	$3, %eax
 151 012f 01D0     		addl	%edx, %eax
 152 0131 0FB600   		movzbl	(%eax), %eax
 153 0134 0FB6F0   		movzbl	%al, %esi
 154 0137 8B45F4   		movl	-12(%ebp), %eax
 155 013a 99       		cltd
 156 013b C1EA1D   		shrl	$29, %edx
 157 013e 01D0     		addl	%edx, %eax
 158 0140 83E007   		andl	$7, %eax
 159 0143 29D0     		subl	%edx, %eax
 160 0145 89C1     		movl	%eax, %ecx
 161 0147 D3FE     		sarl	%cl, %esi
 162 0149 89F0     		movl	%esi, %eax
 163 014b 83E001   		andl	$1, %eax
 164 014e 85C0     		testl	%eax, %eax
 165 0150 7407     		je	L5
 166 0152 B8010000 		movl	$1, %eax
 166      00
 167 0157 EB05     		jmp	L6
 168              	L5:
 169 0159 B8000000 		movl	$0, %eax
 169      00
 170              	L6:
 171 015e 884302   		movb	%al, 2(%ebx)
 172 0161 8345F401 		addl	$1, -12(%ebp)
 173              	L2:
 174 0165 A1000000 		movl	_Di, %eax
 174      00
 175 016a C1E003   		sall	$3, %eax
 176 016d 3B45F4   		cmpl	-12(%ebp), %eax
 177 0170 0F8F9EFE 		jg	L7
 177      FFFF
 178 0176 83C410   		addl	$16, %esp
 179 0179 5B       		popl	%ebx
 180 017a 5E       		popl	%esi
 181 017b 5D       		popl	%ebp
 182 017c C3       		ret
 183              		.globl	_enc_out
 185              	_enc_out:
 186 017d 55       		pushl	%ebp
 187 017e 89E5     		movl	%esp, %ebp
 188 0180 57       		pushl	%edi
 189 0181 56       		pushl	%esi
 190 0182 53       		pushl	%ebx
 191 0183 83EC2C   		subl	$44, %esp
 192 0186 89E0     		movl	%esp, %eax
 193 0188 89C6     		movl	%eax, %esi
 194 018a A1000000 		movl	_Dq, %eax
 194      00
 195 018f 8D50FF   		leal	-1(%eax), %edx
 196 0192 8955E0   		movl	%edx, -32(%ebp)
 197 0195 BA100000 		movl	$16, %edx
 197      00
 198 019a 83EA01   		subl	$1, %edx
 199 019d 01D0     		addl	%edx, %eax
 200 019f BF100000 		movl	$16, %edi
 200      00
 201 01a4 BA000000 		movl	$0, %edx
 201      00
 202 01a9 F7F7     		divl	%edi
 203 01ab 6BC010   		imull	$16, %eax, %eax
 204 01ae E8000000 		call	___chkstk_ms
 204      00
 205 01b3 29C4     		subl	%eax, %esp
 206 01b5 8D44240C 		leal	12(%esp), %eax
 207 01b9 83C000   		addl	$0, %eax
 208 01bc 8945DC   		movl	%eax, -36(%ebp)
 209 01bf A1000000 		movl	_Dq, %eax
 209      00
 210 01c4 89C2     		movl	%eax, %edx
 211 01c6 8B45DC   		movl	-36(%ebp), %eax
 212 01c9 89542408 		movl	%edx, 8(%esp)
 213 01cd C7442404 		movl	$0, 4(%esp)
 213      00000000 
 214 01d5 890424   		movl	%eax, (%esp)
 215 01d8 E8000000 		call	_memset
 215      00
 216 01dd C745E400 		movl	$0, -28(%ebp)
 216      000000
 217 01e4 E9A20000 		jmp	L9
 217      00
 218              	L13:
 219 01e9 8B45E4   		movl	-28(%ebp), %eax
 220 01ec 8D5007   		leal	7(%eax), %edx
 221 01ef 85C0     		testl	%eax, %eax
 222 01f1 0F48C2   		cmovs	%edx, %eax
 223 01f4 C1F803   		sarl	$3, %eax
 224 01f7 89C3     		movl	%eax, %ebx
 225 01f9 8B45DC   		movl	-36(%ebp), %eax
 226 01fc 0FB60418 		movzbl	(%eax,%ebx), %eax
 227 0200 89C7     		movl	%eax, %edi
 228 0202 8B4508   		movl	8(%ebp), %eax
 229 0205 8B4824   		movl	36(%eax), %ecx
 230 0208 8B55E4   		movl	-28(%ebp), %edx
 231 020b 89D0     		movl	%edx, %eax
 232 020d C1E003   		sall	$3, %eax
 233 0210 01D0     		addl	%edx, %eax
 234 0212 01C0     		addl	%eax, %eax
 235 0214 01D0     		addl	%edx, %eax
 236 0216 01C8     		addl	%ecx, %eax
 237 0218 0FB600   		movzbl	(%eax), %eax
 238 021b 84C0     		testb	%al, %al
 239 021d 753C     		jne	L10
 240 021f 8B4508   		movl	8(%ebp), %eax
 241 0222 8B4824   		movl	36(%eax), %ecx
 242 0225 8B55E4   		movl	-28(%ebp), %edx
 243 0228 89D0     		movl	%edx, %eax
 244 022a C1E003   		sall	$3, %eax
 245 022d 01D0     		addl	%edx, %eax
 246 022f 01C0     		addl	%eax, %eax
 247 0231 01D0     		addl	%edx, %eax
 248 0233 01C8     		addl	%ecx, %eax
 249 0235 0FB64001 		movzbl	1(%eax), %eax
 250 0239 84C0     		testb	%al, %al
 251 023b 7425     		je	L11
 252 023d 8B4508   		movl	8(%ebp), %eax
 253 0240 8B4824   		movl	36(%eax), %ecx
 254 0243 8B55E4   		movl	-28(%ebp), %edx
 255 0246 89D0     		movl	%edx, %eax
 256 0248 C1E003   		sall	$3, %eax
 257 024b 01D0     		addl	%edx, %eax
 258 024d 01C0     		addl	%eax, %eax
 259 024f 01D0     		addl	%edx, %eax
 260 0251 01C8     		addl	%ecx, %eax
 261 0253 0FB64002 		movzbl	2(%eax), %eax
 262 0257 84C0     		testb	%al, %al
 263 0259 7507     		jne	L11
 264              	L10:
 265 025b B8010000 		movl	$1, %eax
 265      00
 266 0260 EB05     		jmp	L12
 267              	L11:
 268 0262 B8000000 		movl	$0, %eax
 268      00
 269              	L12:
 270 0267 8B55E4   		movl	-28(%ebp), %edx
 271 026a 89D1     		movl	%edx, %ecx
 272 026c C1F91F   		sarl	$31, %ecx
 273 026f C1E91D   		shrl	$29, %ecx
 274 0272 01CA     		addl	%ecx, %edx
 275 0274 83E207   		andl	$7, %edx
 276 0277 29CA     		subl	%ecx, %edx
 277 0279 89D1     		movl	%edx, %ecx
 278 027b D3E0     		sall	%cl, %eax
 279 027d 09F8     		orl	%edi, %eax
 280 027f 89C2     		movl	%eax, %edx
 281 0281 8B45DC   		movl	-36(%ebp), %eax
 282 0284 881418   		movb	%dl, (%eax,%ebx)
 283 0287 8345E401 		addl	$1, -28(%ebp)
 284              	L9:
 285 028b A1000000 		movl	_Dq, %eax
 285      00
 286 0290 C1E003   		sall	$3, %eax
 287 0293 3B45E4   		cmpl	-28(%ebp), %eax
 288 0296 0F8F4DFF 		jg	L13
 288      FFFF
 289 029c A1000000 		movl	_Dq, %eax
 289      00
 290 02a1 89C1     		movl	%eax, %ecx
 291 02a3 8B55DC   		movl	-36(%ebp), %edx
 292 02a6 8B4508   		movl	8(%ebp), %eax
 293 02a9 8B4004   		movl	4(%eax), %eax
 294 02ac 894C2408 		movl	%ecx, 8(%esp)
 295 02b0 89542404 		movl	%edx, 4(%esp)
 296 02b4 890424   		movl	%eax, (%esp)
 297 02b7 E8000000 		call	_memcpy
 297      00
 298 02bc 89F4     		movl	%esi, %esp
 299 02be 8D65F4   		leal	-12(%ebp), %esp
 300 02c1 5B       		popl	%ebx
 301 02c2 5E       		popl	%esi
 302 02c3 5F       		popl	%edi
 303 02c4 5D       		popl	%ebp
 304 02c5 C3       		ret
 305              		.globl	_read_mvars
 307              	_read_mvars:
 308 02c6 55       		pushl	%ebp
 309 02c7 89E5     		movl	%esp, %ebp
 310 02c9 53       		pushl	%ebx
 311 02ca 83EC10   		subl	$16, %esp
 312 02cd C745F800 		movl	$0, -8(%ebp)
 312      000000
 313 02d4 E9B00000 		jmp	L15
 313      00
 314              	L20:
 315 02d9 8B4508   		movl	8(%ebp), %eax
 316 02dc 8B5030   		movl	48(%eax), %edx
 317 02df 8B45F8   		movl	-8(%ebp), %eax
 318 02e2 C1E002   		sall	$2, %eax
 319 02e5 8D0CC500 		leal	0(,%eax,8), %ecx
 319      000000
 320 02ec 29C1     		subl	%eax, %ecx
 321 02ee 89C8     		movl	%ecx, %eax
 322 02f0 01D0     		addl	%edx, %eax
 323 02f2 0FB64008 		movzbl	8(%eax), %eax
 324 02f6 84C0     		testb	%al, %al
 325 02f8 7521     		jne	L16
 326 02fa 8B4508   		movl	8(%ebp), %eax
 327 02fd 8B5030   		movl	48(%eax), %edx
 328 0300 8B45F8   		movl	-8(%ebp), %eax
 329 0303 C1E002   		sall	$2, %eax
 330 0306 8D0CC500 		leal	0(,%eax,8), %ecx
 330      000000
 331 030d 29C1     		subl	%eax, %ecx
 332 030f 89C8     		movl	%ecx, %eax
 333 0311 01D0     		addl	%edx, %eax
 334 0313 0FB64009 		movzbl	9(%eax), %eax
 335 0317 84C0     		testb	%al, %al
 336 0319 746A     		je	L17
 337              	L16:
 338 031b 8B4508   		movl	8(%ebp), %eax
 339 031e 8B5030   		movl	48(%eax), %edx
 340 0321 8B45F8   		movl	-8(%ebp), %eax
 341 0324 C1E002   		sall	$2, %eax
 342 0327 8D0CC500 		leal	0(,%eax,8), %ecx
 342      000000
 343 032e 29C1     		subl	%eax, %ecx
 344 0330 89C8     		movl	%ecx, %eax
 345 0332 01C2     		addl	%eax, %edx
 346 0334 8B4508   		movl	8(%ebp), %eax
 347 0337 8B4830   		movl	48(%eax), %ecx
 348 033a 8B45F8   		movl	-8(%ebp), %eax
 349 033d C1E002   		sall	$2, %eax
 350 0340 8D1CC500 		leal	0(,%eax,8), %ebx
 350      000000
 351 0347 29C3     		subl	%eax, %ebx
 352 0349 89D8     		movl	%ebx, %eax
 353 034b 01C8     		addl	%ecx, %eax
 354 034d 0FB64008 		movzbl	8(%eax), %eax
 355 0351 84C0     		testb	%al, %al
 356 0353 7428     		je	L18
 357 0355 8B4508   		movl	8(%ebp), %eax
 358 0358 8B4830   		movl	48(%eax), %ecx
 359 035b 8B45F8   		movl	-8(%ebp), %eax
 360 035e C1E002   		sall	$2, %eax
 361 0361 8D1CC500 		leal	0(,%eax,8), %ebx
 361      000000
 362 0368 29C3     		subl	%eax, %ebx
 363 036a 89D8     		movl	%ebx, %eax
 364 036c 01C8     		addl	%ecx, %eax
 365 036e 0FB64009 		movzbl	9(%eax), %eax
 366 0372 84C0     		testb	%al, %al
 367 0374 7507     		jne	L18
 368 0376 B8010000 		movl	$1, %eax
 368      00
 369 037b EB05     		jmp	L19
 370              	L18:
 371 037d B8000000 		movl	$0, %eax
 371      00
 372              	L19:
 373 0382 884206   		movb	%al, 6(%edx)
 374              	L17:
 375 0385 8345F801 		addl	$1, -8(%ebp)
 376              	L15:
 377 0389 A1000000 		movl	_Nm, %eax
 377      00
 378 038e 3945F8   		cmpl	%eax, -8(%ebp)
 379 0391 0F8C42FF 		jl	L20
 379      FFFF
 380 0397 83C410   		addl	$16, %esp
 381 039a 5B       		popl	%ebx
 382 039b 5D       		popl	%ebp
 383 039c C3       		ret
 384              		.globl	_write_mvars
 386              	_write_mvars:
 387 039d 55       		pushl	%ebp
 388 039e 89E5     		movl	%esp, %ebp
 389 03a0 56       		pushl	%esi
 390 03a1 53       		pushl	%ebx
 391 03a2 83EC10   		subl	$16, %esp
 392 03a5 C745F400 		movl	$0, -12(%ebp)
 392      000000
 393 03ac E9F50000 		jmp	L22
 393      00
 394              	L26:
 395 03b1 8B4508   		movl	8(%ebp), %eax
 396 03b4 8B5030   		movl	48(%eax), %edx
 397 03b7 8B45F4   		movl	-12(%ebp), %eax
 398 03ba C1E002   		sall	$2, %eax
 399 03bd 8D0CC500 		leal	0(,%eax,8), %ecx
 399      000000
 400 03c4 29C1     		subl	%eax, %ecx
 401 03c6 89C8     		movl	%ecx, %eax
 402 03c8 01D0     		addl	%edx, %eax
 403 03ca 0FB64004 		movzbl	4(%eax), %eax
 404 03ce 84C0     		testb	%al, %al
 405 03d0 0F85CC00 		jne	L23
 405      0000
 406 03d6 8B4508   		movl	8(%ebp), %eax
 407 03d9 8B5030   		movl	48(%eax), %edx
 408 03dc 8B45F4   		movl	-12(%ebp), %eax
 409 03df C1E002   		sall	$2, %eax
 410 03e2 8D0CC500 		leal	0(,%eax,8), %ecx
 410      000000
 411 03e9 29C1     		subl	%eax, %ecx
 412 03eb 89C8     		movl	%ecx, %eax
 413 03ed 01D0     		addl	%edx, %eax
 414 03ef 0FB64006 		movzbl	6(%eax), %eax
 415 03f3 84C0     		testb	%al, %al
 416 03f5 0F84A700 		je	L23
 416      0000
 417 03fb 8B4508   		movl	8(%ebp), %eax
 418 03fe 8B5030   		movl	48(%eax), %edx
 419 0401 8B45F4   		movl	-12(%ebp), %eax
 420 0404 C1E002   		sall	$2, %eax
 421 0407 8D0CC500 		leal	0(,%eax,8), %ecx
 421      000000
 422 040e 29C1     		subl	%eax, %ecx
 423 0410 89C8     		movl	%ecx, %eax
 424 0412 01D0     		addl	%edx, %eax
 425 0414 0FB64007 		movzbl	7(%eax), %eax
 426 0418 84C0     		testb	%al, %al
 427 041a 0F848200 		je	L23
 427      0000
 428 0420 8B4508   		movl	8(%ebp), %eax
 429 0423 8B5030   		movl	48(%eax), %edx
 430 0426 8B45F4   		movl	-12(%ebp), %eax
 431 0429 C1E002   		sall	$2, %eax
 432 042c 8D0CC500 		leal	0(,%eax,8), %ecx
 432      000000
 433 0433 29C1     		subl	%eax, %ecx
 434 0435 89C8     		movl	%ecx, %eax
 435 0437 01C2     		addl	%eax, %edx
 436 0439 8B4508   		movl	8(%ebp), %eax
 437 043c 8B4830   		movl	48(%eax), %ecx
 438 043f 8B45F4   		movl	-12(%ebp), %eax
 439 0442 C1E002   		sall	$2, %eax
 440 0445 8D1CC500 		leal	0(,%eax,8), %ebx
 440      000000
 441 044c 29C3     		subl	%eax, %ebx
 442 044e 89D8     		movl	%ebx, %eax
 443 0450 01C8     		addl	%ecx, %eax
 444 0452 8B08     		movl	(%eax), %ecx
 445 0454 8B4508   		movl	8(%ebp), %eax
 446 0457 8B5830   		movl	48(%eax), %ebx
 447 045a 8B45F4   		movl	-12(%ebp), %eax
 448 045d C1E002   		sall	$2, %eax
 449 0460 8D34C500 		leal	0(,%eax,8), %esi
 449      000000
 450 0467 29C6     		subl	%eax, %esi
 451 0469 89F0     		movl	%esi, %eax
 452 046b 01D8     		addl	%ebx, %eax
 453 046d 0FB64005 		movzbl	5(%eax), %eax
 454 0471 84C0     		testb	%al, %al
 455 0473 7407     		je	L24
 456 0475 B8FFFFFF 		movl	$-1, %eax
 456      FF
 457 047a EB05     		jmp	L25
 458              	L24:
 459 047c B8010000 		movl	$1, %eax
 459      00
 460              	L25:
 461 0481 01C8     		addl	%ecx, %eax
 462 0483 8902     		movl	%eax, (%edx)
 463 0485 8B4508   		movl	8(%ebp), %eax
 464 0488 8B5030   		movl	48(%eax), %edx
 465 048b 8B45F4   		movl	-12(%ebp), %eax
 466 048e C1E002   		sall	$2, %eax
 467 0491 8D0CC500 		leal	0(,%eax,8), %ecx
 467      000000
 468 0498 29C1     		subl	%eax, %ecx
 469 049a 89C8     		movl	%ecx, %eax
 470 049c 01D0     		addl	%edx, %eax
 471 049e C6400700 		movb	$0, 7(%eax)
 472              	L23:
 473 04a2 8345F401 		addl	$1, -12(%ebp)
 474              	L22:
 475 04a6 A1000000 		movl	_Nm, %eax
 475      00
 476 04ab 3945F4   		cmpl	%eax, -12(%ebp)
 477 04ae 0F8CFDFE 		jl	L26
 477      FFFF
 478 04b4 83C410   		addl	$16, %esp
 479 04b7 5B       		popl	%ebx
 480 04b8 5E       		popl	%esi
 481 04b9 5D       		popl	%ebp
 482 04ba C3       		ret
 483              		.globl	_re
 485              	_re:
 486 04bb 55       		pushl	%ebp
 487 04bc 89E5     		movl	%esp, %ebp
 488 04be 83EC10   		subl	$16, %esp
 489 04c1 8B450C   		movl	12(%ebp), %eax
 490 04c4 85C0     		testl	%eax, %eax
 491 04c6 7407     		je	L29
 492 04c8 83F802   		cmpl	$2, %eax
 493 04cb 7426     		je	L30
 494 04cd EB74     		jmp	L34
 495              	L29:
 496 04cf 8B4510   		movl	16(%ebp), %eax
 497 04d2 BA010000 		movl	$1, %edx
 497      00
 498 04d7 89C1     		movl	%eax, %ecx
 499 04d9 D3E2     		sall	%cl, %edx
 500 04db 89D0     		movl	%edx, %eax
 501 04dd 25F30100 		andl	$499, %eax
 501      00
 502 04e2 8945FC   		movl	%eax, -4(%ebp)
 503 04e5 8B4510   		movl	16(%ebp), %eax
 504 04e8 8B55FC   		movl	-4(%ebp), %edx
 505 04eb 89C1     		movl	%eax, %ecx
 506 04ed D3FA     		sarl	%cl, %edx
 507 04ef 89D0     		movl	%edx, %eax
 508 04f1 EB55     		jmp	L31
 509              	L30:
 510 04f3 8B4508   		movl	8(%ebp), %eax
 511 04f6 8B5030   		movl	48(%eax), %edx
 512 04f9 8B4510   		movl	16(%ebp), %eax
 513 04fc C1E002   		sall	$2, %eax
 514 04ff 8D0CC500 		leal	0(,%eax,8), %ecx
 514      000000
 515 0506 29C1     		subl	%eax, %ecx
 516 0508 89C8     		movl	%ecx, %eax
 517 050a 01D0     		addl	%edx, %eax
 518 050c 0FB64006 		movzbl	6(%eax), %eax
 519 0510 84C0     		testb	%al, %al
 520 0512 7428     		je	L32
 521 0514 8B4508   		movl	8(%ebp), %eax
 522 0517 8B5030   		movl	48(%eax), %edx
 523 051a 8B4510   		movl	16(%ebp), %eax
 524 051d C1E002   		sall	$2, %eax
 525 0520 8D0CC500 		leal	0(,%eax,8), %ecx
 525      000000
 526 0527 29C1     		subl	%eax, %ecx
 527 0529 89C8     		movl	%ecx, %eax
 528 052b 01D0     		addl	%edx, %eax
 529 052d 0FB64007 		movzbl	7(%eax), %eax
 530 0531 84C0     		testb	%al, %al
 531 0533 7407     		je	L32
 532 0535 B8010000 		movl	$1, %eax
 532      00
 533 053a EB05     		jmp	L33
 534              	L32:
 535 053c B8000000 		movl	$0, %eax
 535      00
 536              	L33:
 537 0541 EB05     		jmp	L31
 538              	L34:
 539 0543 B8FFFFFF 		movl	$-1, %eax
 539      FF
 540              	L31:
 541 0548 C9       		leave
 542 0549 C3       		ret
 543              		.globl	_fe
 545              	_fe:
 546 054a 55       		pushl	%ebp
 547 054b 89E5     		movl	%esp, %ebp
 548 054d 8B450C   		movl	12(%ebp), %eax
 549 0550 85C0     		testl	%eax, %eax
 550 0552 7407     		je	L37
 551 0554 83F802   		cmpl	$2, %eax
 552 0557 7421     		je	L38
 553 0559 EB6F     		jmp	L42
 554              	L37:
 555 055b 8B4508   		movl	8(%ebp), %eax
 556 055e 8B4820   		movl	32(%eax), %ecx
 557 0561 8B5510   		movl	16(%ebp), %edx
 558 0564 89D0     		movl	%edx, %eax
 559 0566 C1E003   		sall	$3, %eax
 560 0569 01D0     		addl	%edx, %eax
 561 056b 01C0     		addl	%eax, %eax
 562 056d 01D0     		addl	%edx, %eax
 563 056f 01C8     		addl	%ecx, %eax
 564 0571 0FB64002 		movzbl	2(%eax), %eax
 565 0575 0FB6C0   		movzbl	%al, %eax
 566 0578 EB55     		jmp	L39
 567              	L38:
 568 057a 8B4508   		movl	8(%ebp), %eax
 569 057d 8B5030   		movl	48(%eax), %edx
 570 0580 8B4510   		movl	16(%ebp), %eax
 571 0583 C1E002   		sall	$2, %eax
 572 0586 8D0CC500 		leal	0(,%eax,8), %ecx
 572      000000
 573 058d 29C1     		subl	%eax, %ecx
 574 058f 89C8     		movl	%ecx, %eax
 575 0591 01D0     		addl	%edx, %eax
 576 0593 0FB64006 		movzbl	6(%eax), %eax
 577 0597 84C0     		testb	%al, %al
 578 0599 7528     		jne	L40
 579 059b 8B4508   		movl	8(%ebp), %eax
 580 059e 8B5030   		movl	48(%eax), %edx
 581 05a1 8B4510   		movl	16(%ebp), %eax
 582 05a4 C1E002   		sall	$2, %eax
 583 05a7 8D0CC500 		leal	0(,%eax,8), %ecx
 583      000000
 584 05ae 29C1     		subl	%eax, %ecx
 585 05b0 89C8     		movl	%ecx, %eax
 586 05b2 01D0     		addl	%edx, %eax
 587 05b4 0FB64007 		movzbl	7(%eax), %eax
 588 05b8 84C0     		testb	%al, %al
 589 05ba 7407     		je	L40
 590 05bc B8010000 		movl	$1, %eax
 590      00
 591 05c1 EB05     		jmp	L41
 592              	L40:
 593 05c3 B8000000 		movl	$0, %eax
 593      00
 594              	L41:
 595 05c8 EB05     		jmp	L39
 596              	L42:
 597 05ca B8FFFFFF 		movl	$-1, %eax
 597      FF
 598              	L39:
 599 05cf 5D       		popl	%ebp
 600 05d0 C3       		ret
 601              		.globl	_set
 603              	_set:
 604 05d1 55       		pushl	%ebp
 605 05d2 89E5     		movl	%esp, %ebp
 606 05d4 8B450C   		movl	12(%ebp), %eax
 607 05d7 83F802   		cmpl	$2, %eax
 608 05da 7417     		je	L45
 609 05dc 83F803   		cmpl	$3, %eax
 610 05df 0F848A00 		je	L46
 610      0000
 611 05e5 83F801   		cmpl	$1, %eax
 612 05e8 0F84A300 		je	L52
 612      0000
 613 05ee E9970000 		jmp	L51
 613      00
 614              	L45:
 615 05f3 8B4508   		movl	8(%ebp), %eax
 616 05f6 8B5030   		movl	48(%eax), %edx
 617 05f9 8B4510   		movl	16(%ebp), %eax
 618 05fc C1E002   		sall	$2, %eax
 619 05ff 8D0CC500 		leal	0(,%eax,8), %ecx
 619      000000
 620 0606 29C1     		subl	%eax, %ecx
 621 0608 89C8     		movl	%ecx, %eax
 622 060a 01D0     		addl	%edx, %eax
 623 060c C6400801 		movb	$1, 8(%eax)
 624 0610 8B4508   		movl	8(%ebp), %eax
 625 0613 8B5030   		movl	48(%eax), %edx
 626 0616 8B4510   		movl	16(%ebp), %eax
 627 0619 C1E002   		sall	$2, %eax
 628 061c 8D0CC500 		leal	0(,%eax,8), %ecx
 628      000000
 629 0623 29C1     		subl	%eax, %ecx
 630 0625 89C8     		movl	%ecx, %eax
 631 0627 01D0     		addl	%edx, %eax
 632 0629 C6400900 		movb	$0, 9(%eax)
 633 062d 8B4508   		movl	8(%ebp), %eax
 634 0630 8B5030   		movl	48(%eax), %edx
 635 0633 8B4510   		movl	16(%ebp), %eax
 636 0636 C1E002   		sall	$2, %eax
 637 0639 8D0CC500 		leal	0(,%eax,8), %ecx
 637      000000
 638 0640 29C1     		subl	%eax, %ecx
 639 0642 89C8     		movl	%ecx, %eax
 640 0644 01D0     		addl	%edx, %eax
 641 0646 0FB64006 		movzbl	6(%eax), %eax
 642 064a 84C0     		testb	%al, %al
 643 064c 751F     		jne	L49
 644 064e 8B4508   		movl	8(%ebp), %eax
 645 0651 8B5030   		movl	48(%eax), %edx
 646 0654 8B4510   		movl	16(%ebp), %eax
 647 0657 C1E002   		sall	$2, %eax
 648 065a 8D0CC500 		leal	0(,%eax,8), %ecx
 648      000000
 649 0661 29C1     		subl	%eax, %ecx
 650 0663 89C8     		movl	%ecx, %eax
 651 0665 01D0     		addl	%edx, %eax
 652 0667 C6400701 		movb	$1, 7(%eax)
 653 066b EB25     		jmp	L48
 654              	L49:
 655 066d EB23     		jmp	L48
 656              	L46:
 657 066f 8B4508   		movl	8(%ebp), %eax
 658 0672 8B4828   		movl	40(%eax), %ecx
 659 0675 8B5510   		movl	16(%ebp), %edx
 660 0678 89D0     		movl	%edx, %eax
 661 067a C1E002   		sall	$2, %eax
 662 067d 01D0     		addl	%edx, %eax
 663 067f C1E003   		sall	$3, %eax
 664 0682 01C8     		addl	%ecx, %eax
 665 0684 C6401501 		movb	$1, 21(%eax)
 666 0688 EB08     		jmp	L48
 667              	L51:
 668 068a B8FFFFFF 		movl	$-1, %eax
 668      FF
 669 068f EB06     		jmp	L50
 670              	L52:
 671 0691 90       		nop
 672              	L48:
 673 0692 B8010000 		movl	$1, %eax
 673      00
 674              	L50:
 675 0697 5D       		popl	%ebp
 676 0698 C3       		ret
 677              		.globl	_reset
 679              	_reset:
 680 0699 55       		pushl	%ebp
 681 069a 89E5     		movl	%esp, %ebp
 682 069c 8B450C   		movl	12(%ebp), %eax
 683 069f 83F802   		cmpl	$2, %eax
 684 06a2 744B     		je	L55
 685 06a4 83F803   		cmpl	$3, %eax
 686 06a7 0F84BE00 		je	L56
 686      0000
 687 06ad 83F801   		cmpl	$1, %eax
 688 06b0 0F85D000 		jne	L61
 688      0000
 689 06b6 8B4508   		movl	8(%ebp), %eax
 690 06b9 8B4824   		movl	36(%eax), %ecx
 691 06bc 8B5510   		movl	16(%ebp), %edx
 692 06bf 89D0     		movl	%edx, %eax
 693 06c1 C1E003   		sall	$3, %eax
 694 06c4 01D0     		addl	%edx, %eax
 695 06c6 01C0     		addl	%eax, %eax
 696 06c8 01D0     		addl	%edx, %eax
 697 06ca 01C8     		addl	%ecx, %eax
 698 06cc C6400201 		movb	$1, 2(%eax)
 699 06d0 8B4508   		movl	8(%ebp), %eax
 700 06d3 8B4824   		movl	36(%eax), %ecx
 701 06d6 8B5510   		movl	16(%ebp), %edx
 702 06d9 89D0     		movl	%edx, %eax
 703 06db C1E003   		sall	$3, %eax
 704 06de 01D0     		addl	%edx, %eax
 705 06e0 01C0     		addl	%eax, %eax
 706 06e2 01D0     		addl	%edx, %eax
 707 06e4 01C8     		addl	%ecx, %eax
 708 06e6 C6400100 		movb	$0, 1(%eax)
 709 06ea E99E0000 		jmp	L58
 709      00
 710              	L55:
 711 06ef 8B4508   		movl	8(%ebp), %eax
 712 06f2 8B5030   		movl	48(%eax), %edx
 713 06f5 8B4510   		movl	16(%ebp), %eax
 714 06f8 C1E002   		sall	$2, %eax
 715 06fb 8D0CC500 		leal	0(,%eax,8), %ecx
 715      000000
 716 0702 29C1     		subl	%eax, %ecx
 717 0704 89C8     		movl	%ecx, %eax
 718 0706 01D0     		addl	%edx, %eax
 719 0708 C6400901 		movb	$1, 9(%eax)
 720 070c 8B4508   		movl	8(%ebp), %eax
 721 070f 8B5030   		movl	48(%eax), %edx
 722 0712 8B4510   		movl	16(%ebp), %eax
 723 0715 C1E002   		sall	$2, %eax
 724 0718 8D0CC500 		leal	0(,%eax,8), %ecx
 724      000000
 725 071f 29C1     		subl	%eax, %ecx
 726 0721 89C8     		movl	%ecx, %eax
 727 0723 01D0     		addl	%edx, %eax
 728 0725 C6400800 		movb	$0, 8(%eax)
 729 0729 8B4508   		movl	8(%ebp), %eax
 730 072c 8B5030   		movl	48(%eax), %edx
 731 072f 8B4510   		movl	16(%ebp), %eax
 732 0732 C1E002   		sall	$2, %eax
 733 0735 8D0CC500 		leal	0(,%eax,8), %ecx
 733      000000
 734 073c 29C1     		subl	%eax, %ecx
 735 073e 89C8     		movl	%ecx, %eax
 736 0740 01D0     		addl	%edx, %eax
 737 0742 0FB64006 		movzbl	6(%eax), %eax
 738 0746 84C0     		testb	%al, %al
 739 0748 741F     		je	L59
 740 074a 8B4508   		movl	8(%ebp), %eax
 741 074d 8B5030   		movl	48(%eax), %edx
 742 0750 8B4510   		movl	16(%ebp), %eax
 743 0753 C1E002   		sall	$2, %eax
 744 0756 8D0CC500 		leal	0(,%eax,8), %ecx
 744      000000
 745 075d 29C1     		subl	%eax, %ecx
 746 075f 89C8     		movl	%ecx, %eax
 747 0761 01D0     		addl	%edx, %eax
 748 0763 C6400701 		movb	$1, 7(%eax)
 749 0767 EB24     		jmp	L58
 750              	L59:
 751 0769 EB22     		jmp	L58
 752              	L56:
 753 076b 8B4508   		movl	8(%ebp), %eax
 754 076e 8B4828   		movl	40(%eax), %ecx
 755 0771 8B5510   		movl	16(%ebp), %edx
 756 0774 89D0     		movl	%edx, %eax
 757 0776 C1E002   		sall	$2, %eax
 758 0779 01D0     		addl	%edx, %eax
 759 077b C1E003   		sall	$3, %eax
 760 077e 01C8     		addl	%ecx, %eax
 761 0780 C6401500 		movb	$0, 21(%eax)
 762 0784 EB07     		jmp	L58
 763              	L61:
 764 0786 B8FFFFFF 		movl	$-1, %eax
 764      FF
 765 078b EB05     		jmp	L60
 766              	L58:
 767 078d B8010000 		movl	$1, %eax
 767      00
 768              	L60:
 769 0792 5D       		popl	%ebp
 770 0793 C3       		ret
 771              		.section .rdata,"dr"
 772              	LC0:
 773 0000 436F6E74 		.ascii "Contact=%d\12\0"
 773      6163743D 
 773      25640A00 
 774              		.text
 775              		.globl	_contact
 777              	_contact:
 778 0794 55       		pushl	%ebp
 779 0795 89E5     		movl	%esp, %ebp
 780 0797 83EC18   		subl	$24, %esp
 781 079a 8B4514   		movl	20(%ebp), %eax
 782 079d 8845F4   		movb	%al, -12(%ebp)
 783 07a0 8B450C   		movl	12(%ebp), %eax
 784 07a3 83F802   		cmpl	$2, %eax
 785 07a6 742B     		je	L64
 786 07a8 83F803   		cmpl	$3, %eax
 787 07ab 0F84A200 		je	L65
 787      0000
 788 07b1 83F801   		cmpl	$1, %eax
 789 07b4 0F85B400 		jne	L71
 789      0000
 790 07ba 0FB645F4 		movzbl	-12(%ebp), %eax
 791 07be 89442404 		movl	%eax, 4(%esp)
 792 07c2 C7042400 		movl	$LC0, (%esp)
 792      000000
 793 07c9 E8000000 		call	_printf
 793      00
 794 07ce E9A20000 		jmp	L67
 794      00
 795              	L64:
 796 07d3 8B4508   		movl	8(%ebp), %eax
 797 07d6 8B5030   		movl	48(%eax), %edx
 798 07d9 8B4510   		movl	16(%ebp), %eax
 799 07dc C1E002   		sall	$2, %eax
 800 07df 8D0CC500 		leal	0(,%eax,8), %ecx
 800      000000
 801 07e6 29C1     		subl	%eax, %ecx
 802 07e8 89C8     		movl	%ecx, %eax
 803 07ea 01D0     		addl	%edx, %eax
 804 07ec 0FB64006 		movzbl	6(%eax), %eax
 805 07f0 3A45F4   		cmpb	-12(%ebp), %al
 806 07f3 741F     		je	L68
 807 07f5 8B4508   		movl	8(%ebp), %eax
 808 07f8 8B5030   		movl	48(%eax), %edx
 809 07fb 8B4510   		movl	16(%ebp), %eax
 810 07fe C1E002   		sall	$2, %eax
 811 0801 8D0CC500 		leal	0(,%eax,8), %ecx
 811      000000
 812 0808 29C1     		subl	%eax, %ecx
 813 080a 89C8     		movl	%ecx, %eax
 814 080c 01D0     		addl	%edx, %eax
 815 080e C6400701 		movb	$1, 7(%eax)
 816 0812 EB1D     		jmp	L69
 817              	L68:
 818 0814 8B4508   		movl	8(%ebp), %eax
 819 0817 8B5030   		movl	48(%eax), %edx
 820 081a 8B4510   		movl	16(%ebp), %eax
 821 081d C1E002   		sall	$2, %eax
 822 0820 8D0CC500 		leal	0(,%eax,8), %ecx
 822      000000
 823 0827 29C1     		subl	%eax, %ecx
 824 0829 89C8     		movl	%ecx, %eax
 825 082b 01D0     		addl	%edx, %eax
 826 082d C6400700 		movb	$0, 7(%eax)
 827              	L69:
 828 0831 8B4508   		movl	8(%ebp), %eax
 829 0834 8B5030   		movl	48(%eax), %edx
 830 0837 8B4510   		movl	16(%ebp), %eax
 831 083a C1E002   		sall	$2, %eax
 832 083d 8D0CC500 		leal	0(,%eax,8), %ecx
 832      000000
 833 0844 29C1     		subl	%eax, %ecx
 834 0846 89C8     		movl	%ecx, %eax
 835 0848 01C2     		addl	%eax, %edx
 836 084a 0FB645F4 		movzbl	-12(%ebp), %eax
 837 084e 884206   		movb	%al, 6(%edx)
 838 0851 EB22     		jmp	L67
 839              	L65:
 840 0853 8B4508   		movl	8(%ebp), %eax
 841 0856 8B4828   		movl	40(%eax), %ecx
 842 0859 8B5510   		movl	16(%ebp), %edx
 843 085c 89D0     		movl	%edx, %eax
 844 085e C1E002   		sall	$2, %eax
 845 0861 01D0     		addl	%edx, %eax
 846 0863 C1E003   		sall	$3, %eax
 847 0866 01C8     		addl	%ecx, %eax
 848 0868 C6401501 		movb	$1, 21(%eax)
 849 086c EB07     		jmp	L67
 850              	L71:
 851 086e B8FFFFFF 		movl	$-1, %eax
 851      FF
 852 0873 EB05     		jmp	L70
 853              	L67:
 854 0875 B8010000 		movl	$1, %eax
 854      00
 855              	L70:
 856 087a C9       		leave
 857 087b C3       		ret
 858              		.globl	_resolve
 860              	_resolve:
 861 087c 55       		pushl	%ebp
 862 087d 89E5     		movl	%esp, %ebp
 863 087f 837D0C04 		cmpl	$4, 12(%ebp)
 864 0883 0F87F800 		ja	L73
 864      0000
 865 0889 8B450C   		movl	12(%ebp), %eax
 866 088c C1E002   		sall	$2, %eax
 867 088f 050C0000 		addl	$L75, %eax
 867      00
 868 0894 8B00     		movl	(%eax), %eax
 869 0896 FFE0     		jmp	*%eax
 870              		.section .rdata,"dr"
 871              		.align 4
 872              	L75:
 873 000c 24090000 		.long	L74
 874 0010 98080000 		.long	L76
 875 0014 02090000 		.long	L77
 876 0018 63090000 		.long	L78
 877 001c 42090000 		.long	L79
 878              		.text
 879              	L76:
 880 0898 8B4508   		movl	8(%ebp), %eax
 881 089b 8B4824   		movl	36(%eax), %ecx
 882 089e 8B5510   		movl	16(%ebp), %edx
 883 08a1 89D0     		movl	%edx, %eax
 884 08a3 C1E003   		sall	$3, %eax
 885 08a6 01D0     		addl	%edx, %eax
 886 08a8 01C0     		addl	%eax, %eax
 887 08aa 01D0     		addl	%edx, %eax
 888 08ac 01C8     		addl	%ecx, %eax
 889 08ae 0FB600   		movzbl	(%eax), %eax
 890 08b1 84C0     		testb	%al, %al
 891 08b3 753C     		jne	L80
 892 08b5 8B4508   		movl	8(%ebp), %eax
 893 08b8 8B4824   		movl	36(%eax), %ecx
 894 08bb 8B5510   		movl	16(%ebp), %edx
 895 08be 89D0     		movl	%edx, %eax
 896 08c0 C1E003   		sall	$3, %eax
 897 08c3 01D0     		addl	%edx, %eax
 898 08c5 01C0     		addl	%eax, %eax
 899 08c7 01D0     		addl	%edx, %eax
 900 08c9 01C8     		addl	%ecx, %eax
 901 08cb 0FB64001 		movzbl	1(%eax), %eax
 902 08cf 84C0     		testb	%al, %al
 903 08d1 7425     		je	L81
 904 08d3 8B4508   		movl	8(%ebp), %eax
 905 08d6 8B4824   		movl	36(%eax), %ecx
 906 08d9 8B5510   		movl	16(%ebp), %edx
 907 08dc 89D0     		movl	%edx, %eax
 908 08de C1E003   		sall	$3, %eax
 909 08e1 01D0     		addl	%edx, %eax
 910 08e3 01C0     		addl	%eax, %eax
 911 08e5 01D0     		addl	%edx, %eax
 912 08e7 01C8     		addl	%ecx, %eax
 913 08e9 0FB64002 		movzbl	2(%eax), %eax
 914 08ed 84C0     		testb	%al, %al
 915 08ef 7507     		jne	L81
 916              	L80:
 917 08f1 B8010000 		movl	$1, %eax
 917      00
 918 08f6 EB05     		jmp	L82
 919              	L81:
 920 08f8 B8000000 		movl	$0, %eax
 920      00
 921              	L82:
 922 08fd E9840000 		jmp	L83
 922      00
 923              	L77:
 924 0902 8B4508   		movl	8(%ebp), %eax
 925 0905 8B5030   		movl	48(%eax), %edx
 926 0908 8B4510   		movl	16(%ebp), %eax
 927 090b C1E002   		sall	$2, %eax
 928 090e 8D0CC500 		leal	0(,%eax,8), %ecx
 928      000000
 929 0915 29C1     		subl	%eax, %ecx
 930 0917 89C8     		movl	%ecx, %eax
 931 0919 01D0     		addl	%edx, %eax
 932 091b 0FB64006 		movzbl	6(%eax), %eax
 933 091f 0FB6C0   		movzbl	%al, %eax
 934 0922 EB62     		jmp	L83
 935              	L74:
 936 0924 8B4508   		movl	8(%ebp), %eax
 937 0927 8B4820   		movl	32(%eax), %ecx
 938 092a 8B5510   		movl	16(%ebp), %edx
 939 092d 89D0     		movl	%edx, %eax
 940 092f C1E003   		sall	$3, %eax
 941 0932 01D0     		addl	%edx, %eax
 942 0934 01C0     		addl	%eax, %eax
 943 0936 01D0     		addl	%edx, %eax
 944 0938 01C8     		addl	%ecx, %eax
 945 093a 0FB600   		movzbl	(%eax), %eax
 946 093d 0FB6C0   		movzbl	%al, %eax
 947 0940 EB44     		jmp	L83
 948              	L79:
 949 0942 8B4508   		movl	8(%ebp), %eax
 950 0945 8B502C   		movl	44(%eax), %edx
 951 0948 8B4510   		movl	16(%ebp), %eax
 952 094b C1E002   		sall	$2, %eax
 953 094e 8D0CC500 		leal	0(,%eax,8), %ecx
 953      000000
 954 0955 29C1     		subl	%eax, %ecx
 955 0957 89C8     		movl	%ecx, %eax
 956 0959 01D0     		addl	%edx, %eax
 957 095b 0FB600   		movzbl	(%eax), %eax
 958 095e 0FB6C0   		movzbl	%al, %eax
 959 0961 EB23     		jmp	L83
 960              	L78:
 961 0963 8B4508   		movl	8(%ebp), %eax
 962 0966 8B4828   		movl	40(%eax), %ecx
 963 0969 8B5510   		movl	16(%ebp), %edx
 964 096c 89D0     		movl	%edx, %eax
 965 096e C1E002   		sall	$2, %eax
 966 0971 01D0     		addl	%edx, %eax
 967 0973 C1E003   		sall	$3, %eax
 968 0976 01C8     		addl	%ecx, %eax
 969 0978 0FB6400C 		movzbl	12(%eax), %eax
 970 097c 0FB6C0   		movzbl	%al, %eax
 971 097f EB05     		jmp	L83
 972              	L73:
 973 0981 B8FFFFFF 		movl	$-1, %eax
 973      FF
 974              	L83:
 975 0986 5D       		popl	%ebp
 976 0987 C3       		ret
 977              		.globl	_down_timer
 979              	_down_timer:
 980 0988 55       		pushl	%ebp
 981 0989 89E5     		movl	%esp, %ebp
 982 098b 8B4508   		movl	8(%ebp), %eax
 983 098e 8B4828   		movl	40(%eax), %ecx
 984 0991 8B550C   		movl	12(%ebp), %edx
 985 0994 89D0     		movl	%edx, %eax
 986 0996 C1E002   		sall	$2, %eax
 987 0999 01D0     		addl	%edx, %eax
 988 099b C1E003   		sall	$3, %eax
 989 099e 01C8     		addl	%ecx, %eax
 990 09a0 C6401500 		movb	$0, 21(%eax)
 991 09a4 8B4508   		movl	8(%ebp), %eax
 992 09a7 8B4828   		movl	40(%eax), %ecx
 993 09aa 8B550C   		movl	12(%ebp), %edx
 994 09ad 89D0     		movl	%edx, %eax
 995 09af C1E002   		sall	$2, %eax
 996 09b2 01D0     		addl	%edx, %eax
 997 09b4 C1E003   		sall	$3, %eax
 998 09b7 01C8     		addl	%ecx, %eax
 999 09b9 C7400800 		movl	$0, 8(%eax)
 999      000000
 1000 09c0 8B4508   		movl	8(%ebp), %eax
 1001 09c3 8B4828   		movl	40(%eax), %ecx
 1002 09c6 8B550C   		movl	12(%ebp), %edx
 1003 09c9 89D0     		movl	%edx, %eax
 1004 09cb C1E002   		sall	$2, %eax
 1005 09ce 01D0     		addl	%edx, %eax
 1006 09d0 C1E003   		sall	$3, %eax
 1007 09d3 01C8     		addl	%ecx, %eax
 1008 09d5 C6400C00 		movb	$0, 12(%eax)
 1009 09d9 B8010000 		movl	$1, %eax
 1009      00
 1010 09de 5D       		popl	%ebp
 1011 09df C3       		ret
 1012              		.ident	"GCC: (tdm-2) 4.8.1"
DEFINED SYMBOLS
                            *ABS*:00000000 plclib.c
                            *COM*:00000034 _plc
                            *COM*:00000004 _Use_comedi
                            *COM*:00000004 _Step
                            *COM*:00000004 _Sigenable
                            *COM*:00000004 _Pagelen
                            *COM*:00000004 _Pagewidth
                            *COM*:00000004 _Nt
                            *COM*:00000004 _Ns
                            *COM*:00000004 _Nm
                            *COM*:00000004 _Di
                            *COM*:00000004 _Dq
                            *COM*:00000004 _Base
                            *COM*:00000004 _Wr_offs
                            *COM*:00000004 _Rd_offs
                            *COM*:00000004 _Comedi_file
                            *COM*:00000004 _Comedi_subdev_i
                            *COM*:00000004 _Comedi_subdev_q
                            *COM*:04000000 _Lines
                            *COM*:00000004 _Lineno
                            *COM*:00040000 _Pos
                            *COM*:00010000 _Val
                            *COM*:04000000 _Labels
                            *COM*:00000001 _Command
                            *COM*:00000001 _Response
C:\Users\Bharat\AppData\Local\Temp\cceQSIky.s:29     .text:00000000 _dec_inp
C:\Users\Bharat\AppData\Local\Temp\cceQSIky.s:185    .text:0000017d _enc_out
C:\Users\Bharat\AppData\Local\Temp\cceQSIky.s:307    .text:000002c6 _read_mvars
C:\Users\Bharat\AppData\Local\Temp\cceQSIky.s:386    .text:0000039d _write_mvars
C:\Users\Bharat\AppData\Local\Temp\cceQSIky.s:485    .text:000004bb _re
C:\Users\Bharat\AppData\Local\Temp\cceQSIky.s:545    .text:0000054a _fe
C:\Users\Bharat\AppData\Local\Temp\cceQSIky.s:603    .text:000005d1 _set
C:\Users\Bharat\AppData\Local\Temp\cceQSIky.s:679    .text:00000699 _reset
C:\Users\Bharat\AppData\Local\Temp\cceQSIky.s:777    .text:00000794 _contact
C:\Users\Bharat\AppData\Local\Temp\cceQSIky.s:860    .text:0000087c _resolve
C:\Users\Bharat\AppData\Local\Temp\cceQSIky.s:979    .text:00000988 _down_timer

UNDEFINED SYMBOLS
___chkstk_ms
_memset
_memcpy
_printf
